ccopy_reg
_reconstructor
p0
(cigem.imptools.dongraphlib
network
p1
c__builtin__
object
p2
Ntp3
Rp4
(dp5
S'node_incidence'
p6
(dp7
S'C05696'
p8
(lp9
sS'C04435'
p10
(lp11
sS'C16470'
p12
(lp13
sS'C16472'
p14
(lp15
sS'C01726'
p16
(lp17
sS'C10906'
p18
(lp19
sS'C10905'
p20
(lp21
sS'C00394'
p22
(lp23
sS'C05625'
p24
(lp25
sS'C01852'
p26
(lp27
sS'C01028'
p28
(lp29
sS'C04509'
p30
(lp31
sS'C01026'
p32
(lp33
sS'C01755'
p34
(lp35
sS'C01024'
p36
(lp37
sS'C01025'
p38
(lp39
sS'C01750'
p40
(lp41
sS'C01751'
p42
(lp43
sS'C01020'
p44
(lp45
sS'C04501'
p46
(lp47
sS'C07446'
p48
(lp49
sS'C13482'
p50
(lp51
sS'C16478'
p52
(lp53
sS'C04877'
p54
(lp55
sS'C04874'
p56
(lp57
sS'C04875'
p58
(lp59
sS'C16682'
p60
(lp61
sS'C06441'
p62
(lp63
sS'C16681'
p64
(lp65
sS'C12370'
p66
(lp67
sS'C16685'
p68
(lp69
sS'C16688'
p70
(lp71
sS'C12371'
p72
(lp73
sS'C07447'
p74
(lp75
sS'C09826'
p76
(lp77
sS'C03162'
p78
(lp79
sS'C09827'
p80
(lp81
sS'C00885'
p82
(lp83
sS'C06361'
p84
(lp85
sS'C02133'
p86
(lp87
sS'C02132'
p88
(lp89
sS'C02137'
p90
(lp91
sS'C02139'
p92
(lp93
sS'C07213'
p94
(lp95
sS'C16641'
p96
(lp97
sS'C00882'
p98
(lp99
sS'C01628'
p100
(lp101
sS'C01629'
p102
(lp103
sS'C16263'
p104
(lp105
sS'C00553'
p106
(lp107
sS'C01620'
p108
(lp109
sS'C00880'
p110
(lp111
sS'C01624'
p112
(lp113
sS'C01625'
p114
(lp115
sS'C01626'
p116
(lp117
sS'C01335'
p118
(lp119
sS'C05839'
p120
(lp121
sS'C02006'
p122
(lp123
sS'C01802'
p124
(lp125
sS'C01807'
p126
(lp127
sS'C11397'
p128
(lp129
sS'C05837'
p130
(lp131
sS'C11396'
p132
(lp133
sS'C03664'
p134
(lp135
sS'C16199'
p136
(lp137
sS'C16196'
p138
(lp139
sS'C16194'
p140
(lp141
sS'C16195'
p142
(lp143
sS'C16193'
p144
(lp145
sS'C16190'
p146
(lp147
sS'C11173'
p148
(lp149
sS'C05813'
p150
(lp151
sS'C06231'
p152
(lp153
sS'C05812'
p154
(lp155
sS'C15881'
p156
(lp157
sS'C15883'
p158
(lp159
sS'C15882'
p160
(lp161
sS'C05212'
p162
(lp163
sS'C05811'
p164
(lp165
sS'C15887'
p166
(lp167
sS'C15886'
p168
(lp169
sS'C01246'
p170
(lp171
sS'C01247'
p172
(lp173
sS'C01245'
p174
(lp175
sS'C01242'
p176
(lp177
sS'C01243'
p178
(lp179
sS'C01240'
p180
(lp181
sS'C01933'
p182
(lp183
sS'C02225'
p184
(lp185
sS'C05904'
p186
(lp187
sS'C05907'
p188
(lp189
sS'C05906'
p190
(lp191
sS'C02593'
p192
(lp193
sS'C02220'
p194
(lp195
sS'C02591'
p196
(lp197
sS'C01249'
p198
(lp199
sS'C02912'
p200
(lp201
sS'C02917'
p202
(lp203
sS'C02916'
p204
(lp205
sS'C02915'
p206
(lp207
sS'C14083'
p208
(lp209
sS'C02918'
p210
(lp211
sS'C03579'
p212
(lp213
sS'C03241'
p214
(lp215
sS'C12044'
p216
(lp217
sS'C06362'
p218
(lp219
sS'C06588'
p220
(lp221
sS'C03069'
p222
(lp223
sS'C06584'
p224
(lp225
sS'C03065'
p226
(lp227
sS'C03066'
p228
(lp229
sS'C06587'
p230
(lp231
sS'C06580'
p232
(lp233
sS'C06581'
p234
(lp235
sS'C06582'
p236
(lp237
sS'C03063'
p238
(lp239
sS'C02827'
p240
(lp241
sS'C02048'
p242
(lp243
sS'C02825'
p244
(lp245
sS'C02824'
p246
(lp247
sS'C06322'
p248
(lp249
sS'C03268'
p250
(lp251
sS'C04507'
p252
(lp253
sS'C06346'
p254
(lp255
sS'C03267'
p256
(lp257
sS'C02043'
p258
(lp259
sS'C03263'
p260
(lp261
sS'C02047'
p262
(lp263
sS'C02046'
p264
(lp265
sS'C06566'
p266
(lp267
sS'C03087'
p268
(lp269
sS'C06564'
p270
(lp271
sS'C06563'
p272
(lp273
sS'C06560'
p274
(lp275
sS'C07098'
p276
(lp277
sS'C01022'
p278
(lp279
sS'C06568'
p280
(lp281
sS'C03089'
p282
(lp283
sS'C11401'
p284
(lp285
sS'C11400'
p286
(lp287
sS'C11403'
p288
(lp289
sS'C11402'
p290
(lp291
sS'C11405'
p292
(lp293
sS'C01752'
p294
(lp295
sS'C11409'
p296
(lp297
sS'C04271'
p298
(lp299
sS'C04272'
p300
(lp301
sS'C01021'
p302
(lp303
sS'C04276'
p304
(lp305
sS'C04277'
p306
(lp307
sS'C12095'
p308
(lp309
sS'C16202'
p310
(lp311
sS'C14845'
p312
(lp313
sS'C12448'
p314
(lp315
sS'C06661'
p316
(lp317
sS'C07099'
p318
(lp319
sS'C03409'
p320
(lp321
sS'C07185'
p322
(lp323
sS'C06660'
p324
(lp325
sS'C03402'
p326
(lp327
sS'C12441'
p328
(lp329
sS'C06160'
p330
(lp331
sS'C03401'
p332
(lp333
sS'C03406'
p334
(lp335
sS'C01923'
p336
(lp337
sS'C03404'
p338
(lp339
sS'C06697'
p340
(lp341
sS'C04219'
p342
(lp343
sS'C04186'
p344
(lp345
sS'C11472'
p346
(lp347
sS'C04648'
p348
(lp349
sS'C05453'
p350
(lp351
sS'C05452'
p352
(lp353
sS'C04188'
p354
(lp355
sS'C05450'
p356
(lp357
sS'C03925'
p358
(lp359
sS'C16724'
p360
(lp361
sS'C03880'
p362
(lp363
sS'C05454'
p364
(lp365
sS'C00692'
p366
(lp367
sS'C00691'
p368
(lp369
sS'C00696'
p370
(lp371
sS'C00697'
p372
(lp373
sS'C00694'
p374
(lp375
sS'C00695'
p376
(lp377
sS'C00698'
p378
(lp379
sS'C00502'
p380
(lp381
sS'C00503'
p382
(lp383
sS'C09815'
p384
(lp385
sS'C00501'
p386
(lp387
sS'C00506'
p388
(lp389
sS'C00507'
p390
(lp391
sS'C09811'
p392
(lp393
sS'C00505'
p394
(lp395
sS'C16215'
p396
(lp397
sS'C16214'
p398
(lp399
sS'C00508'
p400
(lp401
sS'C00509'
p402
(lp403
sS'C11531'
p404
(lp405
sS'C16210'
p406
(lp407
sS'C09819'
p408
(lp409
sS'C09818'
p410
(lp411
sS'C03317'
p412
(lp413
sS'C03315'
p414
(lp415
sS'C06760'
p416
(lp417
sS'C06761'
p418
(lp419
sS'C03318'
p420
(lp421
sS'C03319'
p422
(lp423
sS'C00328'
p424
(lp425
sS'C00329'
p426
(lp427
sS'C05315'
p428
(lp429
sS'C07492'
p430
(lp431
sS'C00322'
p432
(lp433
sS'C00323'
p434
(lp435
sS'C00320'
p436
(lp437
sS'C06837'
p438
(lp439
sS'C00326'
p440
(lp441
sS'C00327'
p442
(lp443
sS'C00325'
p444
(lp445
sS'C15518'
p446
(lp447
sS'C08353'
p448
(lp449
sS'C04698'
p450
(lp451
sS'C00842'
p452
(lp453
sS'C04696'
p454
(lp455
sS'C16156'
p456
(lp457
sS'C04646'
p458
(lp459
sS'C04692'
p460
(lp461
sS'C04690'
p462
(lp463
sS'C04691'
p464
(lp465
sS'C05589'
p466
(lp467
sS'C05588'
p468
(lp469
sS'C04052'
p470
(lp471
sS'C04053'
p472
(lp473
sS'C04054'
p474
(lp475
sS'C05581'
p476
(lp477
sS'C05580'
p478
(lp479
sS'C05583'
p480
(lp481
sS'C05810'
p482
(lp483
sS'C05585'
p484
(lp485
sS'C05587'
p486
(lp487
sS'C00218'
p488
(lp489
sS'C00219'
p490
(lp491
sS'C00216'
p492
(lp493
sS'C00217'
p494
(lp495
sS'C00214'
p496
(lp497
sS'C00215'
p498
(lp499
sS'C00212'
p500
(lp501
sS'C00213'
p502
(lp503
sS'C00036'
p504
(lp505
sS'C00037'
p506
(lp507
sS'C00034'
p508
(lp509
sS'C00035'
p510
(lp511
sS'C00032'
p512
(lp513
sS'C00033'
p514
(lp515
sS'C00030'
p516
(lp517
sS'C00031'
p518
(lp519
sS'C11539'
p520
(lp521
sS'C09789'
p522
(lp523
sS'C00039'
p524
(lp525
sS'C05631'
p526
(lp527
sS'C03427'
p528
(lp529
sS'C05636'
p530
(lp531
sS'C05635'
p532
(lp533
sS'C05634'
p534
(lp535
sS'C12426'
p536
(lp537
sS'C05638'
p538
(lp539
sS'C05966'
p540
(lp541
sS'C12427'
p542
(lp543
sS'C14120'
p544
(lp545
sS'C11538'
p546
(lp547
sS'C06143'
p548
(lp549
sS'C11871'
p550
(lp551
sS'C09847'
p552
(lp553
sS'C11872'
p554
(lp555
sS'C15610'
p556
(lp557
sS'C15613'
p558
(lp559
sS'C15615'
p560
(lp561
sS'C15497'
p562
(lp563
sS'C06148'
p564
(lp565
sS'C15494'
p566
(lp567
sS'C01101'
p568
(lp569
sS'C01100'
p570
(lp571
sS'C01103'
p572
(lp573
sS'C01102'
p574
(lp575
sS'C01104'
p576
(lp577
sS'C01107'
p578
(lp579
sS'C04466'
p580
(lp581
sS'C01109'
p582
(lp583
sS'C01108'
p584
(lp585
sS'C06611'
p586
(lp587
sS'C12739'
p588
(lp589
sS'C05814'
p590
(lp591
sS'C07732'
p592
(lp593
sS'C05127'
p594
(lp595
sS'C05125'
p596
(lp597
sS'C05123'
p598
(lp599
sS'C05122'
p600
(lp601
sS'C04502'
p602
(lp603
sS'C15505'
p604
(lp605
sS'C15500'
p606
(lp607
sS'C15503'
p608
(lp609
sS'C04218'
p610
(lp611
sS'C06390'
p612
(lp613
sS'C15509'
p614
(lp615
sS'C16335'
p616
(lp617
sS'C16567'
p618
(lp619
sS'C01233'
p620
(lp621
sS'C16565'
p622
(lp623
sS'C16563'
p624
(lp625
sS'C06069'
p626
(lp627
sS'C16561'
p628
(lp629
sS'C16560'
p630
(lp631
sS'C16569'
p632
(lp633
sS'C06067'
p634
(lp635
sS'C13747'
p636
(lp637
sS'C15498'
p638
(lp639
sS'C15499'
p640
(lp641
sS'C10974'
p642
(lp643
sS'C01984'
p644
(lp645
sS'C11896'
p646
(lp647
sS'C05217'
p648
(lp649
sS'C04518'
p650
(lp651
sS'C01035'
p652
(lp653
sS'C01034'
p654
(lp655
sS'C04517'
p656
(lp657
sS'C01036'
p658
(lp659
sS'C01031'
p660
(lp661
sS'C01746'
p662
(lp663
sS'C01033'
p664
(lp665
sS'C05220'
p666
(lp667
sS'C07163'
p668
(lp669
sS'C02501'
p670
(lp671
sS'C04865'
p672
(lp673
sS'C04864'
p674
(lp675
sS'C04867'
p676
(lp677
sS'C06060'
p678
(lp679
sS'C04861'
p680
(lp681
sS'C16691'
p682
(lp683
sS'C06715'
p684
(lp685
sS'C16695'
p686
(lp687
sS'C16697'
p688
(lp689
sS'C16698'
p690
(lp691
sS'C16848'
p692
(lp693
sS'C16612'
p694
(lp695
sS'C06711'
p696
(lp697
sS'C02693'
p698
(lp699
sS'C01637'
p700
(lp701
sS'C01636'
p702
(lp703
sS'C01635'
p704
(lp705
sS'C05338'
p706
(lp707
sS'C02457'
p708
(lp709
sS'C02106'
p710
(lp711
sS'C02107'
p712
(lp713
sS'C05332'
p714
(lp715
sS'C02453'
p716
(lp717
sS'C01639'
p718
(lp719
sS'C02103'
p720
(lp721
sS'C01329'
p722
(lp723
sS'C01328'
p724
(lp725
sS'C11898'
p726
(lp727
sS'C16331'
p728
(lp729
sS'C01322'
p730
(lp731
sS'C01327'
p732
(lp733
sS'C01326'
p734
(lp735
sS'C17219'
p736
(lp737
sS'C14802'
p738
(lp739
sS'C01817'
p740
(lp741
sS'C01812'
p742
(lp743
sS'C01810'
p744
(lp745
sS'C03671'
p746
(lp747
sS'C16614'
p748
(lp749
sS'C03673'
p750
(lp751
sS'C03672'
p752
(lp753
sS'C16188'
p754
(lp755
sS'C03677'
p756
(lp757
sS'C03679'
p758
(lp759
sS'C16187'
p760
(lp761
sS'C16186'
p762
(lp763
sS'C16181'
p764
(lp765
sS'C16180'
p766
(lp767
sS'C11978'
p768
(lp769
sS'C01623'
p770
(lp771
sS'C16236'
p772
(lp773
sS'C16617'
p774
(lp775
sS'C01255'
p776
(lp777
sS'C01921'
p778
(lp779
sS'C01256'
p780
(lp781
sS'C01251'
p782
(lp783
sS'C01250'
p784
(lp785
sS'C01253'
p786
(lp787
sS'C01252'
p788
(lp789
sS'C05931'
p790
(lp791
sS'C01929'
p792
(lp793
sS'C05933'
p794
(lp795
sS'C02214'
p796
(lp797
sS'C05936'
p798
(lp799
sS'C16232'
p800
(lp801
sS'C16231'
p802
(lp803
sS'C05838'
p804
(lp805
sS'C04437'
p806
(lp807
sS'C06178'
p808
(lp809
sS'C15484'
p810
(lp811
sS'C15980'
p812
(lp813
sS'C15981'
p814
(lp815
sS'C02076'
p816
(lp817
sS'C03078'
p818
(lp819
sS'C15985'
p820
(lp821
sS'C15986'
p822
(lp823
sS'C11004'
p824
(lp825
sS'C06593'
p826
(lp827
sS'C06592'
p828
(lp829
sS'C07481'
p830
(lp831
sS'C03077'
p832
(lp833
sS'C06596'
p834
(lp835
sS'C06594'
p836
(lp837
sS'C05804'
p838
(lp839
sS'C05805'
p840
(lp841
sS'C02850'
p842
(lp843
sS'C02675'
p844
(lp845
sS'C05800'
p846
(lp847
sS'C05801'
p848
(lp849
sS'C02670'
p850
(lp851
sS'C02671'
p852
(lp853
sS'C03277'
p854
(lp855
sS'C06350'
p856
(lp857
sS'C03273'
p858
(lp859
sS'C03272'
p860
(lp861
sS'C06575'
p862
(lp863
sS'C06577'
p864
(lp865
sS'C06576'
p866
(lp867
sS'C03091'
p868
(lp869
sS'C03090'
p870
(lp871
sS'C04261'
p872
(lp873
sS'C03092'
p874
(lp875
sS'C07083'
p876
(lp877
sS'C07086'
p878
(lp879
sS'C06578'
p880
(lp881
sS'C07084'
p882
(lp883
sS'C04268'
p884
(lp885
sS'C06640'
p886
(lp887
sS'C16358'
p888
(lp889
sS'C11439'
p890
(lp891
sS'C11434'
p892
(lp893
sS'C11435'
p894
(lp895
sS'C11436'
p896
(lp897
sS'C11437'
p898
(lp899
sS'C11431'
p900
(lp901
sS'C11432'
p902
(lp903
sS'C16353'
p904
(lp905
sS'C12457'
p906
(lp907
sS'C12456'
p908
(lp909
sS'C12455'
p910
(lp911
sS'C12631'
p912
(lp913
sS'C06680'
p914
(lp915
sS'C16227'
p916
(lp917
sS'C16339'
p918
(lp919
sS'C12459'
p920
(lp921
sS'C12458'
p922
(lp923
sS'C06179'
p924
(lp925
sS'C00524'
p926
(lp927
sS'C16337'
p928
(lp929
sS'C06171'
p930
(lp931
sS'C03410'
p932
(lp933
sS'C06173'
p934
(lp935
sS'C06172'
p936
(lp937
sS'C03415'
p938
(lp939
sS'C06174'
p940
(lp941
sS'C06177'
p942
(lp943
sS'C06176'
p944
(lp945
sS'C00835'
p946
(lp947
sS'C03899'
p948
(lp949
sS'C16198'
p950
(lp951
sS'C04197'
p952
(lp953
sS'C04196'
p954
(lp955
sS'C03894'
p956
(lp957
sS'C03892'
p958
(lp959
sS'C00681'
p960
(lp961
sS'C00680'
p962
(lp963
sS'C00683'
p964
(lp965
sS'C00682'
p966
(lp967
sS'C00684'
p968
(lp969
sS'C07572'
p970
(lp971
sS'C00686'
p972
(lp973
sS'C00689'
p974
(lp975
sS'C00688'
p976
(lp977
sS'C00831'
p978
(lp979
sS'C17231'
p980
(lp981
sS'C00511'
p982
(lp983
sS'C11509'
p984
(lp985
sS'C00513'
p986
(lp987
sS'C00512'
p988
(lp989
sS'C00515'
p990
(lp991
sS'C00514'
p992
(lp993
sS'C00517'
p994
(lp995
sS'C12986'
p996
(lp997
sS'C00519'
p998
(lp999
sS'C00518'
p1000
(lp1001
sS'C14875'
p1002
(lp1003
sS'C11503'
p1004
(lp1005
sS'C11504'
p1006
(lp1007
sS'C06645'
p1008
(lp1009
sS'C14871'
p1010
(lp1011
sS'C14870'
p1012
(lp1013
sS'C01562'
p1014
(lp1015
sS'C06771'
p1016
(lp1017
sS'C03306'
p1018
(lp1019
sS'C03303'
p1020
(lp1021
sS'C03309'
p1022
(lp1023
sS'C00339'
p1024
(lp1025
sS'C00338'
p1026
(lp1027
sS'C10138'
p1028
(lp1029
sS'C00331'
p1030
(lp1031
sS'C00330'
p1032
(lp1033
sS'C00333'
p1034
(lp1035
sS'C00332'
p1036
(lp1037
sS'C00334'
p1038
(lp1039
sS'C00337'
p1040
(lp1041
sS'C06338'
p1042
(lp1043
sS'C04688'
p1044
(lp1045
sS'C07717'
p1046
(lp1047
sS'C04685'
p1048
(lp1049
sS'C04687'
p1050
(lp1051
sS'C16524'
p1052
(lp1053
sS'C07088'
p1054
(lp1055
sS'C04683'
p1056
(lp1057
sS'C02611'
p1058
(lp1059
sS'C04047'
p1060
(lp1061
sS'C04046'
p1062
(lp1063
sS'C11348'
p1064
(lp1065
sS'C02345'
p1066
(lp1067
sS'C04043'
p1068
(lp1069
sS'C01073'
p1070
(lp1071
sS'C14800'
p1072
(lp1073
sS'C00209'
p1074
(lp1075
sS'C00208'
p1076
(lp1077
sS'C00205'
p1078
(lp1079
sS'C00204'
p1080
(lp1081
sS'C00207'
p1082
(lp1083
sS'C00206'
p1084
(lp1085
sS'C00201'
p1086
(lp1087
sS'C12481'
p1088
(lp1089
sS'C00203'
p1090
(lp1091
sS'C00202'
p1092
(lp1093
sS'C00025'
p1094
(lp1095
sS'C00024'
p1096
(lp1097
sS'C00027'
p1098
(lp1099
sS'C00026'
p1100
(lp1101
sS'C00021'
p1102
(lp1103
sS'C00020'
p1104
(lp1105
sS'C00022'
p1106
(lp1107
sS'C06337'
p1108
(lp1109
sS'C00029'
p1110
(lp1111
sS'C00028'
p1112
(lp1113
sS'C15884'
p1114
(lp1115
sS'C04559'
p1116
(lp1117
sS'C06335'
p1118
(lp1119
sS'C05807'
p1120
(lp1121
sS'C16616'
p1122
(lp1123
sS'C05480'
p1124
(lp1125
sS'C01934'
p1126
(lp1127
sS'C05482'
p1128
(lp1129
sS'C05483'
p1130
(lp1131
sS'C05484'
p1132
(lp1133
sS'C05485'
p1134
(lp1135
sS'C10101'
p1136
(lp1137
sS'C05487'
p1138
(lp1139
sS'C05488'
p1140
(lp1141
sS'C14115'
p1142
(lp1143
sS'C14116'
p1144
(lp1145
sS'C14117'
p1146
(lp1147
sS'C14111'
p1148
(lp1149
sS'C02446'
p1150
(lp1151
sS'C05909'
p1152
(lp1153
sS'C11980'
p1154
(lp1155
sS'C11981'
p1156
(lp1157
sS'C11982'
p1158
(lp1159
sS'C01931'
p1160
(lp1161
sS'C16999'
p1162
(lp1163
sS'C16155'
p1164
(lp1165
sS'C04419'
p1166
(lp1167
sS'C15607'
p1168
(lp1169
sS'C15606'
p1170
(lp1171
sS'C01241'
p1172
(lp1173
sS'C15602'
p1174
(lp1175
sS'C02871'
p1176
(lp1177
sS'C11966'
p1178
(lp1179
sS'C05905'
p1180
(lp1181
sS'C11964'
p1182
(lp1183
sS'C11965'
p1184
(lp1185
sS'C01138'
p1186
(lp1187
sS'C01139'
p1188
(lp1189
sS'C11961'
p1190
(lp1191
sS'C01134'
p1192
(lp1193
sS'C05208'
p1194
(lp1195
sS'C01137'
p1196
(lp1197
sS'C01131'
p1198
(lp1199
sS'C01132'
p1200
(lp1201
sS'C11969'
p1202
(lp1203
sS'C16619'
p1204
(lp1205
sS'C05158'
p1206
(lp1207
sS'C02226'
p1208
(lp1209
sS'C02303'
p1210
(lp1211
sS'C06511'
p1212
(lp1213
sS'C05156'
p1214
(lp1215
sS'C02592'
p1216
(lp1217
sS'C15512'
p1218
(lp1219
sS'C15510'
p1220
(lp1221
sS'C05903'
p1222
(lp1223
sS'C04411'
p1224
(lp1225
sS'C15519'
p1226
(lp1227
sS'C02222'
p1228
(lp1229
sS'C16516'
p1230
(lp1231
sS'C16517'
p1232
(lp1233
sS'C16518'
p1234
(lp1235
sS'C16519'
p1236
(lp1237
sS'C03837'
p1238
(lp1239
sS'C04416'
p1240
(lp1241
sS'C03836'
p1242
(lp1243
sS'C14825'
p1244
(lp1245
sS'C01008'
p1246
(lp1247
sS'C04529'
p1248
(lp1249
sS'C05403'
p1250
(lp1251
sS'C01000'
p1252
(lp1253
sS'C01001'
p1254
(lp1255
sS'C04522'
p1256
(lp1257
sS'C01003'
p1258
(lp1259
sS'C01005'
p1260
(lp1261
sS'C01007'
p1262
(lp1263
sS'C04858'
p1264
(lp1265
sS'C05207'
p1266
(lp1267
sS'C16298'
p1268
(lp1269
sS'C04851'
p1270
(lp1271
sS'C04853'
p1272
(lp1273
sS'C04856'
p1274
(lp1275
sS'C10443'
p1276
(lp1277
sS'C11351'
p1278
(lp1279
sS'C01794'
p1280
(lp1281
sS'C01795'
p1282
(lp1283
sS'C16603'
p1284
(lp1285
sS'C01798'
p1286
(lp1287
sS'C11352'
p1288
(lp1289
sS'C16428'
p1290
(lp1291
sS'C03245'
p1292
(lp1293
sS'C02683'
p1294
(lp1295
sS'C02682'
p1296
(lp1297
sS'C16424'
p1298
(lp1299
sS'C02213'
p1300
(lp1301
sS'C02686'
p1302
(lp1303
sS'C11354'
p1304
(lp1305
sS'C01642'
p1306
(lp1307
sS'C01643'
p1308
(lp1309
sS'C02119'
p1310
(lp1311
sS'C01641'
p1312
(lp1313
sS'C01646'
p1314
(lp1315
sS'C01647'
p1316
(lp1317
sS'C01312'
p1318
(lp1319
sS'C01645'
p1320
(lp1321
sS'C02445'
p1322
(lp1323
sS'C02112'
p1324
(lp1325
sS'C01648'
p1326
(lp1327
sS'C01649'
p1328
(lp1329
sS'C02116'
p1330
(lp1331
sS'C02442'
p1332
(lp1333
sS'C01485'
p1334
(lp1335
sS'C01487'
p1336
(lp1337
sS'C00820'
p1338
(lp1339
sS'C01489'
p1340
(lp1341
sS'C11508'
p1342
(lp1343
sS'C01860'
p1344
(lp1345
sS'C01861'
p1346
(lp1347
sS'C01866'
p1348
(lp1349
sS'C01867'
p1350
(lp1351
sS'C03648'
p1352
(lp1353
sS'C03640'
p1354
(lp1355
sS'C03643'
p1356
(lp1357
sS'C02207'
p1358
(lp1359
sS'C16738'
p1360
(lp1361
sS'C06218'
p1362
(lp1363
sS'C06219'
p1364
(lp1365
sS'C05921'
p1366
(lp1367
sS'C02200'
p1368
(lp1369
sS'C16732'
p1370
(lp1371
sS'C06215'
p1372
(lp1373
sS'C06216'
p1374
(lp1375
sS'C06217'
p1376
(lp1377
sS'C16736'
p1378
(lp1379
sS'C16737'
p1380
(lp1381
sS'C06212'
p1382
(lp1383
sS'C05928'
p1384
(lp1385
sS'C01260'
p1386
(lp1387
sS'C01261'
p1388
(lp1389
sS'C01262'
p1390
(lp1391
sS'C01263'
p1392
(lp1393
sS'C01264'
p1394
(lp1395
sS'C01265'
p1396
(lp1397
sS'C01269'
p1398
(lp1399
sS'C12312'
p1400
(lp1401
sS'C07118'
p1402
(lp1403
sS'C16604'
p1404
(lp1405
sS'C06589'
p1406
(lp1407
sS'C02060'
p1408
(lp1409
sS'C02067'
p1410
(lp1411
sS'C02066'
p1412
(lp1413
sS'C05201'
p1414
(lp1415
sS'C02069'
p1416
(lp1417
sS'C15992'
p1418
(lp1419
sS'C16648'
p1420
(lp1421
sS'C16649'
p1422
(lp1423
sS'C03248'
p1424
(lp1425
sS'C06369'
p1426
(lp1427
sS'C03798'
p1428
(lp1429
sS'C02666'
p1430
(lp1431
sS'C02661'
p1432
(lp1433
sS'C02660'
p1434
(lp1435
sS'C05815'
p1436
(lp1437
sS'C02846'
p1438
(lp1439
sS'C03240'
p1440
(lp1441
sS'C03793'
p1442
(lp1443
sS'C03790'
p1444
(lp1445
sS'C05818'
p1446
(lp1447
sS'C06364'
p1448
(lp1449
sS'C01235'
p1450
(lp1451
sS'C03794'
p1452
(lp1453
sS'C06367'
p1454
(lp1455
sS'C04212'
p1456
(lp1457
sS'C04213'
p1458
(lp1459
sS'C04210'
p1460
(lp1461
sS'C03067'
p1462
(lp1463
sS'C04217'
p1464
(lp1465
sS'C06547'
p1466
(lp1467
sS'C06548'
p1468
(lp1469
sS'C07090'
p1470
(lp1471
sS'C07093'
p1472
(lp1473
sS'C05375'
p1474
(lp1475
sS'C07094'
p1476
(lp1477
sS'C07097'
p1478
(lp1479
sS'C07096'
p1480
(lp1481
sS'C11429'
p1482
(lp1483
sS'C16348'
p1484
(lp1485
sS'C11422'
p1486
(lp1487
sS'C06428'
p1488
(lp1489
sS'C11427'
p1490
(lp1491
sS'C11426'
p1492
(lp1493
sS'C11425'
p1494
(lp1495
sS'C12422'
p1496
(lp1497
sS'C06145'
p1498
(lp1499
sS'C12420'
p1500
(lp1501
sS'C02419'
p1502
(lp1503
sS'C06140'
p1504
(lp1505
sS'C06141'
p1506
(lp1507
sS'C12424'
p1508
(lp1509
sS'C02761'
p1510
(lp1511
sS'C12428'
p1512
(lp1513
sS'C12429'
p1514
(lp1515
sS'C03428'
p1516
(lp1517
sS'C08491'
p1518
(lp1519
sS'C06343'
p1520
(lp1521
sS'C08300'
p1522
(lp1523
sS'C08301'
p1524
(lp1525
sS'C08650'
p1526
(lp1527
sS'C06657'
p1528
(lp1529
sS'C11516'
p1530
(lp1531
sS'C16235'
p1532
(lp1533
sS'C16234'
p1534
(lp1535
sS'C16233'
p1536
(lp1537
sS'C13453'
p1538
(lp1539
sS'C11511'
p1540
(lp1541
sS'C16230'
p1542
(lp1543
sS'C04327'
p1544
(lp1545
sS'C04791'
p1546
(lp1547
sS'C11519'
p1548
(lp1549
sS'C16238'
p1550
(lp1551
sS'C09871'
p1552
(lp1553
sS'C14808'
p1554
(lp1555
sS'C16154'
p1556
(lp1557
sS'C00839'
p1558
(lp1559
sS'C00836'
p1560
(lp1561
sS'C00525'
p1562
(lp1563
sS'C00526'
p1564
(lp1565
sS'C00527'
p1566
(lp1567
sS'C00521'
p1568
(lp1569
sS'C00522'
p1570
(lp1571
sS'C00523'
p1572
(lp1573
sS'C06628'
p1574
(lp1575
sS'C06789'
p1576
(lp1577
sS'C07301'
p1578
(lp1579
sS'C07303'
p1580
(lp1581
sS'C06341'
p1582
(lp1583
sS'C07304'
p1584
(lp1585
sS'C07307'
p1586
(lp1587
sS'C09276'
p1588
(lp1589
sS'C17022'
p1590
(lp1591
sS'C03932'
p1592
(lp1593
sS'C03930'
p1594
(lp1595
sS'C16730'
p1596
(lp1597
sS'C03939'
p1598
(lp1599
sS'C00788'
p1600
(lp1601
sS'C00789'
p1602
(lp1603
sS'C04039'
p1604
(lp1605
sS'C11355'
p1606
(lp1607
sS'C06609'
p1608
(lp1609
sS'C11356'
p1610
(lp1611
sS'C00780'
p1612
(lp1613
sS'C00783'
p1614
(lp1615
sS'C04036'
p1616
(lp1617
sS'C00786'
p1618
(lp1619
sS'C00787'
p1620
(lp1621
sS'C00239'
p1622
(lp1623
sS'C00230'
p1624
(lp1625
sS'C00231'
p1626
(lp1627
sS'C00232'
p1628
(lp1629
sS'C00233'
p1630
(lp1631
sS'C00234'
p1632
(lp1633
sS'C00235'
p1634
(lp1635
sS'C00236'
p1636
(lp1637
sS'C00237'
p1638
(lp1639
sS'C00010'
p1640
(lp1641
sS'C00011'
p1642
(lp1643
sS'C00012'
p1644
(lp1645
sS'C00013'
p1646
(lp1647
sS'C00014'
p1648
(lp1649
sS'C00015'
p1650
(lp1651
sS'C00016'
p1652
(lp1653
sS'C00017'
p1654
(lp1655
sS'C00018'
p1656
(lp1657
sS'C00019'
p1658
(lp1659
sS'C11866'
p1660
(lp1661
sS'C04145'
p1662
(lp1663
sS'C03088'
p1664
(lp1665
sS'C17228'
p1666
(lp1667
sS'C02167'
p1668
(lp1669
sS'C04146'
p1670
(lp1671
sS'C16361'
p1672
(lp1673
sS'C14109'
p1674
(lp1675
sS'C14108'
p1676
(lp1677
sS'C04142'
p1678
(lp1679
sS'C05499'
p1680
(lp1681
sS'C05498'
p1682
(lp1683
sS'C05497'
p1684
(lp1685
sS'C14102'
p1686
(lp1687
sS'C14101'
p1688
(lp1689
sS'C14107'
p1690
(lp1691
sS'C14106'
p1692
(lp1693
sS'C14105'
p1694
(lp1695
sS'C14104'
p1696
(lp1697
sS'C00305'
p1698
(lp1699
sS'C16362'
p1700
(lp1701
sS'C00655'
p1702
(lp1703
sS'C00300'
p1704
(lp1705
sS'C00301'
p1706
(lp1707
sS'C00650'
p1708
(lp1709
sS'C00651'
p1710
(lp1711
sS'C11993'
p1712
(lp1713
sS'C11992'
p1714
(lp1715
sS'C11991'
p1716
(lp1717
sS'C11990'
p1718
(lp1719
sS'C11997'
p1720
(lp1721
sS'C00309'
p1722
(lp1723
sS'C00658'
p1724
(lp1725
sS'C11404'
p1726
(lp1727
sS'C15672'
p1728
(lp1729
sS'C17345'
p1730
(lp1731
sS'C17346'
p1732
(lp1733
sS'C01918'
p1734
(lp1735
sS'C15596'
p1736
(lp1737
sS'C11974'
p1738
(lp1739
sS'C11977'
p1740
(lp1741
sS'C04448'
p1742
(lp1743
sS'C11971'
p1744
(lp1745
sS'C11970'
p1746
(lp1747
sS'C11973'
p1748
(lp1749
sS'C11408'
p1750
(lp1751
sS'C01123'
p1752
(lp1753
sS'C04442'
p1754
(lp1755
sS'C01121'
p1756
(lp1757
sS'C01120'
p1758
(lp1759
sS'C01127'
p1760
(lp1761
sS'C01126'
p1762
(lp1763
sS'C01124'
p1764
(lp1765
sS'C05141'
p1766
(lp1767
sS'C05140'
p1768
(lp1769
sS'C09814'
p1770
(lp1771
sS'C05144'
p1772
(lp1773
sS'C05147'
p1774
(lp1775
sS'C00307'
p1776
(lp1777
sS'C00652'
p1778
(lp1779
sS'C00653'
p1780
(lp1781
sS'C16501'
p1782
(lp1783
sS'C16503'
p1784
(lp1785
sS'C16502'
p1786
(lp1787
sS'C16505'
p1788
(lp1789
sS'C16504'
p1790
(lp1791
sS'C15700'
p1792
(lp1793
sS'C16509'
p1794
(lp1795
sS'C09813'
p1796
(lp1797
sS'C04537'
p1798
(lp1799
sS'C04536'
p1800
(lp1801
sS'C01015'
p1802
(lp1803
sS'C04534'
p1804
(lp1805
sS'C01013'
p1806
(lp1807
sS'C01012'
p1808
(lp1809
sS'C01011'
p1810
(lp1811
sS'C01010'
p1812
(lp1813
sS'C11858'
p1814
(lp1815
sS'C01019'
p1816
(lp1817
sS'C16703'
p1818
(lp1819
sS'C04845'
p1820
(lp1821
sS'C11859'
p1822
(lp1823
sS'C04840'
p1824
(lp1825
sS'C04849'
p1826
(lp1827
sS'C04848'
p1828
(lp1829
sS'C16700'
p1830
(lp1831
sS'C06507'
p1832
(lp1833
sS'C11994'
p1834
(lp1835
sS'C13454'
p1836
(lp1837
sS'C13455'
p1838
(lp1839
sS'C13456'
p1840
(lp1841
sS'C04500'
p1842
(lp1843
sS'C17267'
p1844
(lp1845
sS'C04280'
p1846
(lp1847
sS'C01789'
p1848
(lp1849
sS'C01788'
p1850
(lp1851
sS'C01785'
p1852
(lp1853
sS'C15577'
p1854
(lp1855
sS'C17264'
p1856
(lp1857
sS'C17263'
p1858
(lp1859
sS'C16431'
p1860
(lp1861
sS'C16430'
p1862
(lp1863
sS'C07649'
p1864
(lp1865
sS'C01651'
p1866
(lp1867
sS'C13635'
p1868
(lp1869
sS'C01301'
p1870
(lp1871
sS'C01300'
p1872
(lp1873
sS'C01306'
p1874
(lp1875
sS'C13632'
p1876
(lp1877
sS'C01656'
p1878
(lp1879
sS'C02470'
p1880
(lp1881
sS'C02471'
p1882
(lp1883
sS'C01308'
p1884
(lp1885
sS'C02474'
p1886
(lp1887
sS'C02475'
p1888
(lp1889
sS'C05316'
p1890
(lp1891
sS'C02477'
p1892
(lp1893
sS'C01493'
p1894
(lp1895
sS'C01490'
p1896
(lp1897
sS'C01495'
p1898
(lp1899
sS'C01494'
p1900
(lp1901
sS'C06517'
p1902
(lp1903
sS'C01499'
p1904
(lp1905
sS'C06516'
p1906
(lp1907
sS'C01879'
p1908
(lp1909
sS'C15982'
p1910
(lp1911
sS'C01872'
p1912
(lp1913
sS'C01874'
p1914
(lp1915
sS'C01876'
p1916
(lp1917
sS'C02782'
p1918
(lp1919
sS'C12440'
p1920
(lp1921
sS'C03658'
p1922
(lp1923
sS'C02785'
p1924
(lp1925
sS'C03652'
p1926
(lp1927
sS'C14085'
p1928
(lp1929
sS'C03657'
p1930
(lp1931
sS'C08737'
p1932
(lp1933
sS'C05952'
p1934
(lp1935
sS'C05953'
p1936
(lp1937
sS'C02270'
p1938
(lp1939
sS'C02271'
p1940
(lp1941
sS'C02151'
p1942
(lp1943
sS'C02274'
p1944
(lp1945
sS'C06203'
p1946
(lp1947
sS'C06202'
p1948
(lp1949
sS'C02372'
p1950
(lp1951
sS'C05959'
p1952
(lp1953
sS'C16725'
p1954
(lp1955
sS'C06206'
p1956
(lp1957
sS'C06205'
p1958
(lp1959
sS'C16726'
p1960
(lp1961
sS'C05206'
p1962
(lp1963
sS'C12446'
p1964
(lp1965
sS'C01279'
p1966
(lp1967
sS'C01278'
p1968
(lp1969
sS'C01277'
p1970
(lp1971
sS'C01275'
p1972
(lp1973
sS'C12447'
p1974
(lp1975
sS'C01273'
p1976
(lp1977
sS'C01272'
p1978
(lp1979
sS'C01271'
p1980
(lp1981
sS'C01270'
p1982
(lp1983
sS'C05205'
p1984
(lp1985
sS'C06512'
p1986
(lp1987
sS'C01579'
p1988
(lp1989
sS'C17226'
p1990
(lp1991
sS'C09614'
p1992
(lp1993
sS'C11972'
p1994
(lp1995
sS'C04443'
p1996
(lp1997
sS'C02520'
p1998
(lp1999
sS'C09694'
p2000
(lp2001
sS'C04287'
p2002
(lp2003
sS'C05973'
p2004
(lp2005
sS'C04441'
p2006
(lp2007
sS'C07645'
p2008
(lp2009
sS'C16655'
p2010
(lp2011
sS'C03256'
p2012
(lp2013
sS'C03254'
p2014
(lp2015
sS'C16651'
p2016
(lp2017
sS'C06372'
p2018
(lp2019
sS'C06371'
p2020
(lp2021
sS'C06370'
p2022
(lp2023
sS'C02097'
p2024
(lp2025
sS'C02094'
p2026
(lp2027
sS'C04185'
p2028
(lp2029
sS'C16659'
p2030
(lp2031
sS'C06379'
p2032
(lp2033
sS'C06378'
p2034
(lp2035
sS'C03789'
p2036
(lp2037
sS'C03788'
p2038
(lp2039
sS'C11998'
p2040
(lp2041
sS'C02655'
p2042
(lp2043
sS'C02656'
p2044
(lp2045
sS'C02657'
p2046
(lp2047
sS'C02658'
p2048
(lp2049
sS'C02659'
p2050
(lp2051
sS'C02305'
p2052
(lp2053
sS'C03785'
p2054
(lp2055
sS'C02193'
p2056
(lp2057
sS'C02872'
p2058
(lp2059
sS'C02301'
p2060
(lp2061
sS'C04203'
p2062
(lp2063
sS'C04202'
p2064
(lp2065
sS'C04207'
p2066
(lp2067
sS'C06558'
p2068
(lp2069
sS'C06557'
p2070
(lp2071
sS'C06556'
p2072
(lp2073
sS'C06555'
p2074
(lp2075
sS'C06554'
p2076
(lp2077
sS'C06553'
p2078
(lp2079
sS'C06552'
p2080
(lp2081
sS'C06551'
p2082
(lp2083
sS'C02896'
p2084
(lp2085
sS'C02894'
p2086
(lp2087
sS'C05455'
p2088
(lp2089
sS'C02890'
p2090
(lp2091
sS'C01607'
p2092
(lp2093
sS'C16277'
p2094
(lp2095
sS'C06047'
p2096
(lp2097
sS'C02899'
p2098
(lp2099
sS'C12431'
p2100
(lp2101
sS'C12430'
p2102
(lp2103
sS'C12432'
p2104
(lp2105
sS'C12435'
p2106
(lp2107
sS'C06156'
p2108
(lp2109
sS'C03434'
p2110
(lp2111
sS'C12439'
p2112
(lp2113
sS'C02485'
p2114
(lp2115
sS'C06159'
p2116
(lp2117
sS'C09727'
p2118
(lp2119
sS'C08312'
p2120
(lp2121
sS'C16242'
p2122
(lp2123
sS'C16243'
p2124
(lp2125
sS'C16240'
p2126
(lp2127
sS'C16246'
p2128
(lp2129
sS'C14810'
p2130
(lp2131
sS'C16244'
p2132
(lp2133
sS'C04335'
p2134
(lp2135
sS'C04334'
p2136
(lp2137
sS'C16248'
p2138
(lp2139
sS'C16249'
p2140
(lp2141
sS'C04330'
p2142
(lp2143
sS'C04333'
p2144
(lp2145
sS'C04332'
p2146
(lp2147
sS'C14819'
p2148
(lp2149
sS'C14818'
p2150
(lp2151
sS'C00538'
p2152
(lp2153
sS'C00829'
p2154
(lp2155
sS'C00828'
p2156
(lp2157
sS'C00533'
p2158
(lp2159
sS'C00532'
p2160
(lp2161
sS'C00827'
p2162
(lp2163
sS'C00826'
p2164
(lp2165
sS'C00821'
p2166
(lp2167
sS'C00536'
p2168
(lp2169
sS'C00535'
p2170
(lp2171
sS'C00534'
p2172
(lp2173
sS'C03329'
p2174
(lp2175
sS'C02804'
p2176
(lp2177
sS'C12096'
p2178
(lp2179
sS'C03325'
p2180
(lp2181
sS'C03323'
p2182
(lp2183
sS'C06790'
p2184
(lp2185
sS'C06793'
p2186
(lp2187
sS'C06792'
p2188
(lp2189
sS'C09817'
p2190
(lp2191
sS'C09816'
p2192
(lp2193
sS'C05796'
p2194
(lp2195
sS'C05790'
p2196
(lp2197
sS'C05791'
p2198
(lp2199
sS'C00797'
p2200
(lp2201
sS'C00795'
p2202
(lp2203
sS'C00794'
p2204
(lp2205
sS'C00793'
p2206
(lp2207
sS'C00792'
p2208
(lp2209
sS'C00791'
p2210
(lp2211
sS'C03922'
p2212
(lp2213
sS'C05556'
p2214
(lp2215
sS'C05557'
p2216
(lp2217
sS'C07108'
p2218
(lp2219
sS'C02802'
p2220
(lp2221
sS'C05552'
p2222
(lp2223
sS'C00799'
p2224
(lp2225
sS'C00798'
p2226
(lp2227
sS'C00227'
p2228
(lp2229
sS'C00226'
p2230
(lp2231
sS'C00224'
p2232
(lp2233
sS'C00223'
p2234
(lp2235
sS'C00222'
p2236
(lp2237
sS'C00221'
p2238
(lp2239
sS'C16884'
p2240
(lp2241
sS'C04020'
p2242
(lp2243
sS'C04022'
p2244
(lp2245
sS'C04025'
p2246
(lp2247
sS'C16139'
p2248
(lp2249
sS'C00229'
p2250
(lp2251
sS'C14815'
p2252
(lp2253
sS'C16390'
p2254
(lp2255
sS'C07201'
p2256
(lp2257
sS'C16392'
p2258
(lp2259
sS'C16393'
p2260
(lp2261
sS'C16394'
p2262
(lp2263
sS'C16395'
p2264
(lp2265
sS'C16396'
p2266
(lp2267
sS'C16397'
p2268
(lp2269
sS'C07208'
p2270
(lp2271
sS'C07209'
p2272
(lp2273
sS'C11537'
p2274
(lp2275
sS'C06585'
p2276
(lp2277
sS'C11384'
p2278
(lp2279
sS'C11536'
p2280
(lp2281
sS'C11383'
p2282
(lp2283
sS'C00009'
p2284
(lp2285
sS'C00008'
p2286
(lp2287
sS'C00007'
p2288
(lp2289
sS'C00006'
p2290
(lp2291
sS'C00005'
p2292
(lp2293
sS'C00004'
p2294
(lp2295
sS'C00003'
p2296
(lp2297
sS'C00002'
p2298
(lp2299
sS'C00001'
p2300
(lp2301
sS'C16213'
p2302
(lp2303
sS'C16212'
p2304
(lp2305
sS'C04150'
p2306
(lp2307
sS'C00313'
p2308
(lp2309
sS'C00644'
p2310
(lp2311
sS'C00647'
p2312
(lp2313
sS'C00310'
p2314
(lp2315
sS'C00641'
p2316
(lp2317
sS'C00640'
p2318
(lp2319
sS'C00315'
p2320
(lp2321
sS'C00314'
p2322
(lp2323
sS'C00319'
p2324
(lp2325
sS'C00318'
p2326
(lp2327
sS'C15668'
p2328
(lp2329
sS'C00556'
p2330
(lp2331
sS'C15667'
p2332
(lp2333
sS'C15666'
p2334
(lp2335
sS'C05174'
p2336
(lp2337
sS'C05175'
p2338
(lp2339
sS'C05176'
p2340
(lp2341
sS'C05177'
p2342
(lp2343
sS'C11944'
p2344
(lp2345
sS'C11945'
p2346
(lp2347
sS'C11946'
p2348
(lp2349
sS'C11947'
p2350
(lp2351
sS'C11948'
p2352
(lp2353
sS'C11949'
p2354
(lp2355
sS'C05178'
p2356
(lp2357
sS'C05179'
p2358
(lp2359
sS'C06561'
p2360
(lp2361
sS'C04783'
p2362
(lp2363
sS'C05774'
p2364
(lp2365
sS'C05772'
p2366
(lp2367
sS'C05773'
p2368
(lp2369
sS'C05771'
p2370
(lp2371
sS'C12212'
p2372
(lp2373
sS'C05778'
p2374
(lp2375
sS'C16663'
p2376
(lp2377
sS'C06319'
p2378
(lp2379
sS'C06318'
p2380
(lp2381
sS'C17343'
p2382
(lp2383
sS'C12835'
p2384
(lp2385
sS'C16538'
p2386
(lp2387
sS'C10945'
p2388
(lp2389
sS'C02198'
p2390
(lp2391
sS'C04530'
p2392
(lp2393
sS'C16530'
p2394
(lp2395
sS'C16531'
p2396
(lp2397
sS'C16532'
p2398
(lp2399
sS'C01063'
p2400
(lp2401
sS'C01060'
p2402
(lp2403
sS'C12836'
p2404
(lp2405
sS'C04546'
p2406
(lp2407
sS'C04547'
p2408
(lp2409
sS'C01064'
p2410
(lp2411
sS'C01068'
p2412
(lp2413
sS'C01069'
p2414
(lp2415
sS'C04832'
p2416
(lp2417
sS'C04785'
p2418
(lp2419
sS'C11865'
p2420
(lp2421
sS'C04780'
p2422
(lp2423
sS'C12833'
p2424
(lp2425
sS'C05294'
p2426
(lp2427
sS'C12832'
p2428
(lp2429
sS'C16498'
p2430
(lp2431
sS'C16206'
p2432
(lp2433
sS'C14536'
p2434
(lp2435
sS'C17093'
p2436
(lp2437
sS'C12838'
p2438
(lp2439
sS'C16408'
p2440
(lp2441
sS'C02466'
p2442
(lp2443
sS'C02465'
p2444
(lp2445
sS'C02463'
p2446
(lp2447
sS'C05302'
p2448
(lp2449
sS'C05301'
p2450
(lp2451
sS'C16400'
p2452
(lp2453
sS'C06670'
p2454
(lp2455
sS'C16402'
p2456
(lp2457
sS'C16403'
p2458
(lp2459
sS'C16404'
p2460
(lp2461
sS'C16405'
p2462
(lp2463
sS'C02469'
p2464
(lp2465
sS'C16407'
p2466
(lp2467
sS'C13623'
p2468
(lp2469
sS'C13622'
p2470
(lp2471
sS'C13621'
p2472
(lp2473
sS'C13620'
p2474
(lp2475
sS'C04438'
p2476
(lp2477
sS'C13624'
p2478
(lp2479
sS'C01664'
p2480
(lp2481
sS'C13629'
p2482
(lp2483
sS'C16297'
p2484
(lp2485
sS'C02325'
p2486
(lp2487
sS'C04494'
p2488
(lp2489
sS'C04639'
p2490
(lp2491
sS'C01468'
p2492
(lp2493
sS'C01157'
p2494
(lp2495
sS'C01467'
p2496
(lp2497
sS'C04944'
p2498
(lp2499
sS'C04942'
p2500
(lp2501
sS'C01460'
p2502
(lp2503
sS'C16313'
p2504
(lp2505
sS'C01407'
p2506
(lp2507
sS'C01682'
p2508
(lp2509
sS'C01680'
p2510
(lp2511
sS'C04432'
p2512
(lp2513
sS'C01401'
p2514
(lp2515
sS'C02791'
p2516
(lp2517
sS'C02793'
p2518
(lp2519
sS'C16717'
p2520
(lp2521
sS'C16710'
p2522
(lp2523
sS'C04922'
p2524
(lp2525
sS'C02797'
p2526
(lp2527
sS'C16713'
p2528
(lp2529
sS'C02799'
p2530
(lp2531
sS'C02798'
p2532
(lp2533
sS'C01151'
p2534
(lp2535
sS'C16718'
p2536
(lp2537
sS'C16719'
p2538
(lp2539
sS'C17217'
p2540
(lp2541
sS'C02262'
p2542
(lp2543
sS'C02265'
p2544
(lp2545
sS'C05947'
p2546
(lp2547
sS'C05946'
p2548
(lp2549
sS'C02269'
p2550
(lp2551
sS'C05423'
p2552
(lp2553
sS'C01209'
p2554
(lp2555
sS'C01203'
p2556
(lp2557
sS'C01200'
p2558
(lp2559
sS'C01201'
p2560
(lp2561
sS'C01207'
p2562
(lp2563
sS'C01204'
p2564
(lp2565
sS'C01205'
p2566
(lp2567
sS'C06093'
p2568
(lp2569
sS'C06090'
p2570
(lp2571
sS'C06096'
p2572
(lp2573
sS'C06094'
p2574
(lp2575
sS'C06095'
p2576
(lp2577
sS'C10208'
p2578
(lp2579
sS'C06098'
p2580
(lp2581
sS'C06099'
p2582
(lp2583
sS'C05451'
p2584
(lp2585
sS'C03223'
p2586
(lp2587
sS'C12320'
p2588
(lp2589
sS'C03226'
p2590
(lp2591
sS'C03227'
p2592
(lp2593
sS'C02085'
p2594
(lp2595
sS'C03228'
p2596
(lp2597
sS'C02086'
p2598
(lp2599
sS'C02080'
p2600
(lp2601
sS'C02083'
p2602
(lp2603
sS'C01516'
p2604
(lp2605
sS'C01514'
p2606
(lp2607
sS'C02868'
p2608
(lp2609
sS'C01512'
p2610
(lp2611
sS'C01842'
p2612
(lp2613
sS'C02647'
p2614
(lp2615
sS'C02646'
p2616
(lp2617
sS'C02860'
p2618
(lp2619
sS'C01848'
p2620
(lp2621
sS'C02642'
p2622
(lp2623
sS'C02864'
p2624
(lp2625
sS'C08578'
p2626
(lp2627
sS'C04234'
p2628
(lp2629
sS'C10200'
p2630
(lp2631
sS'C06520'
p2632
(lp2633
sS'C04230'
p2634
(lp2635
sS'C04232'
p2636
(lp2637
sS'C04233'
p2638
(lp2639
sS'C12398'
p2640
(lp2641
sS'C02880'
p2642
(lp2643
sS'C16721'
p2644
(lp2645
sS'C02882'
p2646
(lp2647
sS'C12396'
p2648
(lp2649
sS'C12397'
p2650
(lp2651
sS'C12390'
p2652
(lp2653
sS'C12391'
p2654
(lp2655
sS'C12392'
p2656
(lp2657
sS'C12393'
p2658
(lp2659
sS'C12408'
p2660
(lp2661
sS'C12404'
p2662
(lp2663
sS'C12405'
p2664
(lp2665
sS'C12407'
p2666
(lp2667
sS'C12400'
p2668
(lp2669
sS'C03680'
p2670
(lp2671
sS'C03681'
p2672
(lp2673
sS'C17233'
p2674
(lp2675
sS'C03683'
p2676
(lp2677
sS'C03139'
p2678
(lp2679
sS'C03688'
p2680
(lp2681
sS'C03134'
p2682
(lp2683
sS'C12384'
p2684
(lp2685
sS'C06413'
p2686
(lp2687
sS'C06636'
p2688
(lp2689
sS'C06637'
p2690
(lp2691
sS'C08576'
p2692
(lp2693
sS'C02452'
p2694
(lp2695
sS'C06630'
p2696
(lp2697
sS'C03515'
p2698
(lp2699
sS'C06036'
p2700
(lp2701
sS'C06638'
p2702
(lp2703
sS'C06639'
p2704
(lp2705
sS'C04308'
p2706
(lp2707
sS'C11864'
p2708
(lp2709
sS'C14826'
p2710
(lp2711
sS'C06037'
p2712
(lp2713
sS'C16256'
p2714
(lp2715
sS'C04300'
p2716
(lp2717
sS'C16258'
p2718
(lp2719
sS'C04302'
p2720
(lp2721
sS'C04303'
p2722
(lp2723
sS'C04305'
p2724
(lp2725
sS'C00818'
p2726
(lp2727
sS'C00819'
p2728
(lp2729
sS'C08580'
p2730
(lp2731
sS'C08586'
p2732
(lp2733
sS'C07326'
p2734
(lp2735
sS'C16204'
p2736
(lp2737
sS'C00810'
p2738
(lp2739
sS'C00811'
p2740
(lp2741
sS'C00813'
p2742
(lp2743
sS'C00814'
p2744
(lp2745
sS'C00815'
p2746
(lp2747
sS'C00817'
p2748
(lp2749
sS'C05827'
p2750
(lp2751
sS'C07032'
p2752
(lp2753
sS'C03351'
p2754
(lp2755
sS'C03356'
p2756
(lp2757
sS'C03357'
p2758
(lp2759
sS'C05789'
p2760
(lp2761
sS'C07030'
p2762
(lp2763
sS'C05782'
p2764
(lp2765
sS'C02576'
p2766
(lp2767
sS'C05787'
p2768
(lp2769
sS'C05786'
p2770
(lp2771
sS'C03910'
p2772
(lp2773
sS'C04015'
p2774
(lp2775
sS'C03912'
p2776
(lp2777
sS'C04017'
p2778
(lp2779
sS'C05548'
p2780
(lp2781
sS'C11808'
p2782
(lp2783
sS'C03917'
p2784
(lp2785
sS'C05545'
p2786
(lp2787
sS'C05544'
p2788
(lp2789
sS'C04018'
p2790
(lp2791
sS'C11901'
p2792
(lp2793
sS'C00252'
p2794
(lp2795
sS'C00253'
p2796
(lp2797
sS'C00250'
p2798
(lp2799
sS'C00251'
p2800
(lp2801
sS'C00256'
p2802
(lp2803
sS'C00257'
p2804
(lp2805
sS'C00254'
p2806
(lp2807
sS'C00255'
p2808
(lp2809
sS'C00258'
p2810
(lp2811
sS'C00259'
p2812
(lp2813
sS'C11376'
p2814
(lp2815
sS'C00495'
p2816
(lp2817
sS'C00496'
p2818
(lp2819
sS'C00497'
p2820
(lp2821
sS'C00490'
p2822
(lp2823
sS'C00491'
p2824
(lp2825
sS'C00492'
p2826
(lp2827
sS'C00493'
p2828
(lp2829
sS'C07216'
p2830
(lp2831
sS'C07215'
p2832
(lp2833
sS'C07214'
p2834
(lp2835
sS'C00498'
p2836
(lp2837
sS'C00499'
p2838
(lp2839
sS'C07211'
p2840
(lp2841
sS'C06408'
p2842
(lp2843
sS'C11395'
p2844
(lp2845
sS'C13634'
p2846
(lp2847
sS'C00078'
p2848
(lp2849
sS'C00079'
p2850
(lp2851
sS'C11393'
p2852
(lp2853
sS'C01302'
p2854
(lp2855
sS'C00072'
p2856
(lp2857
sS'C00073'
p2858
(lp2859
sS'C00071'
p2860
(lp2861
sS'C11399'
p2862
(lp2863
sS'C00077'
p2864
(lp2865
sS'C00074'
p2866
(lp2867
sS'C00075'
p2868
(lp2869
sS'C01652'
p2870
(lp2871
sS'C07288'
p2872
(lp2873
sS'C13631'
p2874
(lp2875
sS'C04164'
p2876
(lp2877
sS'C04167'
p2878
(lp2879
sS'C01304'
p2880
(lp2881
sS'C03692'
p2882
(lp2883
sS'C00670'
p2884
(lp2885
sS'C00671'
p2886
(lp2887
sS'C00672'
p2888
(lp2889
sS'C00673'
p2890
(lp2891
sS'C00674'
p2892
(lp2893
sS'C00675'
p2894
(lp2895
sS'C00676'
p2896
(lp2897
sS'C00677'
p2898
(lp2899
sS'C00679'
p2900
(lp2901
sS'C11713'
p2902
(lp2903
sS'C06033'
p2904
(lp2905
sS'C11714'
p2906
(lp2907
sS'C05684'
p2908
(lp2909
sS'C00106'
p2910
(lp2911
sS'C06625'
p2912
(lp2913
sS'C00104'
p2914
(lp2915
sS'C00105'
p2916
(lp2917
sS'C15492'
p2918
(lp2919
sS'C00103'
p2920
(lp2921
sS'C00100'
p2922
(lp2923
sS'C00101'
p2924
(lp2925
sS'C13638'
p2926
(lp2927
sS'C06627'
p2928
(lp2929
sS'C00108'
p2930
(lp2931
sS'C00109'
p2932
(lp2933
sS'C05161'
p2934
(lp2935
sS'C04314'
p2936
(lp2937
sS'C05167'
p2938
(lp2939
sS'C05165'
p2940
(lp2941
sS'C11958'
p2942
(lp2943
sS'C11957'
p2944
(lp2945
sS'C11956'
p2946
(lp2947
sS'C11955'
p2948
(lp2949
sS'C11954'
p2950
(lp2951
sS'C11953'
p2952
(lp2953
sS'C11951'
p2954
(lp2955
sS'C16481'
p2956
(lp2957
sS'C05764'
p2958
(lp2959
sS'C05766'
p2960
(lp2961
sS'C05761'
p2962
(lp2963
sS'C06892'
p2964
(lp2965
sS'C06893'
p2966
(lp2967
sS'C06891'
p2968
(lp2969
sS'C05768'
p2970
(lp2971
sS'C06742'
p2972
(lp2973
sS'C10538'
p2974
(lp2975
sS'C04570'
p2976
(lp2977
sS'C08734'
p2978
(lp2979
sS'C16529'
p2980
(lp2981
sS'C16528'
p2982
(lp2983
sS'C05551'
p2984
(lp2985
sS'C10502'
p2986
(lp2987
sS'C16523'
p2988
(lp2989
sS'C06746'
p2990
(lp2991
sS'C16520'
p2992
(lp2993
sS'C03995'
p2994
(lp2995
sS'C01070'
p2996
(lp2997
sS'C04553'
p2998
(lp2999
sS'C04606'
p3000
(lp3001
sS'C01075'
p3002
(lp3003
sS'C04554'
p3004
(lp3005
sS'C01077'
p3006
(lp3007
sS'C04556'
p3008
(lp3009
sS'C01079'
p3010
(lp3011
sS'C01078'
p3012
(lp3013
sS'C16483'
p3014
(lp3015
sS'C04793'
p3016
(lp3017
sS'C13433'
p3018
(lp3019
sS'C04823'
p3020
(lp3021
sS'C13431'
p3022
(lp3023
sS'C04825'
p3024
(lp3025
sS'C04824'
p3026
(lp3027
sS'C04827'
p3028
(lp3029
sS'C04829'
p3030
(lp3031
sS'C04798'
p3032
(lp3033
sS'C14831'
p3034
(lp3035
sS'C10447'
p3036
(lp3037
sS'C14830'
p3038
(lp3039
sS'C15650'
p3040
(lp3041
sS'C15651'
p3042
(lp3043
sS'C10509'
p3044
(lp3045
sS'C16416'
p3046
(lp3047
sS'C16415'
p3048
(lp3049
sS'C16301'
p3050
(lp3051
sS'C08262'
p3052
(lp3053
sS'C07290'
p3054
(lp3055
sS'C02412'
p3056
(lp3057
sS'C02411'
p3058
(lp3059
sS'C05376'
p3060
(lp3061
sS'C02839'
p3062
(lp3063
sS'C02415'
p3064
(lp3065
sS'C05378'
p3066
(lp3067
sS'C05379'
p3068
(lp3069
sS'C00735'
p3070
(lp3071
sS'C01678'
p3072
(lp3073
sS'C00734'
p3074
(lp3075
sS'C01672'
p3076
(lp3077
sS'C06366'
p3078
(lp3079
sS'C01677'
p3080
(lp3081
sS'C00737'
p3082
(lp3083
sS'C01674'
p3084
(lp3085
sS'C00736'
p3086
(lp3087
sS'C01479'
p3088
(lp3089
sS'C07299'
p3090
(lp3091
sS'C04489'
p3092
(lp3093
sS'C04488'
p3094
(lp3095
sS'C04487'
p3096
(lp3097
sS'C01474'
p3098
(lp3099
sS'C01477'
p3100
(lp3101
sS'C04484'
p3102
(lp3103
sS'C04483'
p3104
(lp3105
sS'C01694'
p3106
(lp3107
sS'C01697'
p3108
(lp3109
sS'C01693'
p3110
(lp3111
sS'C12480'
p3112
(lp3113
sS'C01699'
p3114
(lp3115
sS'C01698'
p3116
(lp3117
sS'C12205'
p3118
(lp3119
sS'C15878'
p3120
(lp3121
sS'C15879'
p3122
(lp3123
sS'C16701'
p3124
(lp3125
sS'C08733'
p3126
(lp3127
sS'C16707'
p3128
(lp3129
sS'C16706'
p3130
(lp3131
sS'C16704'
p3132
(lp3133
sS'C16709'
p3134
(lp3135
sS'C16708'
p3136
(lp3137
sS'C15874'
p3138
(lp3139
sS'C15877'
p3140
(lp3141
sS'C07328'
p3142
(lp3143
sS'C05979'
p3144
(lp3145
sS'C02528'
p3146
(lp3147
sS'C05209'
p3148
(lp3149
sS'C02526'
p3150
(lp3151
sS'C02255'
p3152
(lp3153
sS'C05204'
p3154
(lp3155
sS'C05977'
p3156
(lp3157
sS'C05202'
p3158
(lp3159
sS'C05203'
p3160
(lp3161
sS'C05200'
p3162
(lp3163
sS'C02253'
p3164
(lp3165
sS'C01219'
p3166
(lp3167
sS'C01211'
p3168
(lp3169
sS'C01210'
p3170
(lp3171
sS'C01213'
p3172
(lp3173
sS'C01212'
p3174
(lp3175
sS'C01215'
p3176
(lp3177
sS'C01214'
p3178
(lp3179
sS'C01217'
p3180
(lp3181
sS'C01216'
p3182
(lp3183
sS'C05994'
p3184
(lp3185
sS'C12667'
p3186
(lp3187
sS'C05993'
p3188
(lp3189
sS'C15592'
p3190
(lp3191
sS'C11875'
p3192
(lp3193
sS'C05998'
p3194
(lp3195
sS'C05999'
p3196
(lp3197
sS'C06082'
p3198
(lp3199
sS'C07729'
p3200
(lp3201
sS'C06089'
p3202
(lp3203
sS'C07728'
p3204
(lp3205
sS'C06311'
p3206
(lp3207
sS'C03233'
p3208
(lp3209
sS'C06317'
p3210
(lp3211
sS'C03239'
p3212
(lp3213
sS'C03238'
p3214
(lp3215
sS'C16675'
p3216
(lp3217
sS'C16674'
p3218
(lp3219
sS'C16672'
p3220
(lp3221
sS'C01504'
p3222
(lp3223
sS'C01507'
p3224
(lp3225
sS'C01506'
p3226
(lp3227
sS'C01500'
p3228
(lp3229
sS'C02320'
p3230
(lp3231
sS'C02633'
p3232
(lp3233
sS'C02630'
p3234
(lp3235
sS'C02323'
p3236
(lp3237
sS'C02637'
p3238
(lp3239
sS'C02634'
p3240
(lp3241
sS'C02635'
p3242
(lp3243
sS'C16729'
p3244
(lp3245
sS'C02273'
p3246
(lp3247
sS'C04221'
p3248
(lp3249
sS'C04227'
p3250
(lp3251
sS'C04226'
p3252
(lp3253
sS'C06536'
p3254
(lp3255
sS'C05951'
p3256
(lp3257
sS'C12467'
p3258
(lp3259
sS'C12383'
p3260
(lp3261
sS'C12382'
p3262
(lp3263
sS'C12387'
p3264
(lp3265
sS'C12386'
p3266
(lp3267
sS'C12385'
p3268
(lp3269
sS'C05957'
p3270
(lp3271
sS'C07130'
p3272
(lp3273
sS'C05954'
p3274
(lp3275
sS'C12145'
p3276
(lp3277
sS'C12144'
p3278
(lp3279
sS'C12147'
p3280
(lp3281
sS'C01573'
p3282
(lp3283
sS'C12417'
p3284
(lp3285
sS'C12416'
p3286
(lp3287
sS'C12415'
p3288
(lp3289
sS'C12414'
p3290
(lp3291
sS'C16488'
p3292
(lp3293
sS'C02745'
p3294
(lp3295
sS'C06409'
p3296
(lp3297
sS'C02743'
p3298
(lp3299
sS'C02740'
p3300
(lp3301
sS'C02741'
p3302
(lp3303
sS'C06407'
p3304
(lp3305
sS'C06406'
p3306
(lp3307
sS'C03120'
p3308
(lp3309
sS'C03691'
p3310
(lp3311
sS'C02749'
p3312
(lp3313
sS'C04317'
p3314
(lp3315
sS'C04316'
p3316
(lp3317
sS'C04315'
p3318
(lp3319
sS'C16722'
p3320
(lp3321
sS'C06620'
p3322
(lp3323
sS'C05470'
p3324
(lp3325
sS'C06629'
p3326
(lp3327
sS'C03866'
p3328
(lp3329
sS'C04318'
p3330
(lp3331
sS'C00806'
p3332
(lp3333
sS'C00805'
p3334
(lp3335
sS'C00804'
p3336
(lp3337
sS'C16268'
p3338
(lp3339
sS'C11549'
p3340
(lp3341
sS'C00801'
p3342
(lp3343
sS'C00800'
p3344
(lp3345
sS'C16264'
p3346
(lp3347
sS'C11545'
p3348
(lp3349
sS'C14839'
p3350
(lp3351
sS'C05894'
p3352
(lp3353
sS'C11540'
p3354
(lp3355
sS'C04932'
p3356
(lp3357
sS'C11542'
p3358
(lp3359
sS'C00808'
p3360
(lp3361
sS'C08591'
p3362
(lp3363
sS'C08590'
p3364
(lp3365
sS'C08592'
p3366
(lp3367
sS'C05477'
p3368
(lp3369
sS'C16069'
p3370
(lp3371
sS'C00823'
p3372
(lp3373
sS'C17240'
p3374
(lp3375
sS'C08061'
p3376
(lp3377
sS'C08060'
p3378
(lp3379
sS'C08062'
p3380
(lp3381
sS'C12412'
p3382
(lp3383
sS'C07047'
p3384
(lp3385
sS'C15594'
p3386
(lp3387
sS'C03345'
p3388
(lp3389
sS'C16200'
p3390
(lp3391
sS'C09880'
p3392
(lp3393
sS'C05578'
p3394
(lp3395
sS'C05579'
p3396
(lp3397
sS'C04007'
p3398
(lp3399
sS'C04006'
p3400
(lp3401
sS'C05570'
p3402
(lp3403
sS'C03906'
p3404
(lp3405
sS'C03905'
p3406
(lp3407
sS'C03901'
p3408
(lp3409
sS'C03900'
p3410
(lp3411
sS'C00241'
p3412
(lp3413
sS'C00240'
p3414
(lp3415
sS'C00243'
p3416
(lp3417
sS'C00242'
p3418
(lp3419
sS'C00245'
p3420
(lp3421
sS'C00244'
p3422
(lp3423
sS'C00247'
p3424
(lp3425
sS'C00246'
p3426
(lp3427
sS'C00249'
p3428
(lp3429
sS'C02170'
p3430
(lp3431
sS'C00483'
p3432
(lp3433
sS'C00482'
p3434
(lp3435
sS'C00481'
p3436
(lp3437
sS'C11499'
p3438
(lp3439
sS'C00487'
p3440
(lp3441
sS'C00486'
p3442
(lp3443
sS'C00489'
p3444
(lp3445
sS'C00488'
p3446
(lp3447
sS'C11496'
p3448
(lp3449
sS'C12368'
p3450
(lp3451
sS'C02835'
p3452
(lp3453
sS'C00069'
p3454
(lp3455
sS'C00068'
p3456
(lp3457
sS'C05680'
p3458
(lp3459
sS'C05686'
p3460
(lp3461
sS'C11818'
p3462
(lp3463
sS'C00061'
p3464
(lp3465
sS'C00060'
p3466
(lp3467
sS'C00063'
p3468
(lp3469
sS'C00062'
p3470
(lp3471
sS'C00065'
p3472
(lp3473
sS'C00064'
p3474
(lp3475
sS'C00067'
p3476
(lp3477
sS'C00066'
p3478
(lp3479
sS'C16279'
p3480
(lp3481
sS'C16600'
p3482
(lp3483
sS'C12388'
p3484
(lp3485
sS'C06989'
p3486
(lp3487
sS'C04178'
p3488
(lp3489
sS'C11920'
p3490
(lp3491
sS'C14874'
p3492
(lp3493
sS'C04171'
p3494
(lp3495
sS'C16285'
p3496
(lp3497
sS'C16282'
p3498
(lp3499
sS'C05576'
p3500
(lp3501
sS'C00669'
p3502
(lp3503
sS'C00668'
p3504
(lp3505
sS'C00666'
p3506
(lp3507
sS'C00665'
p3508
(lp3509
sS'C00664'
p3510
(lp3511
sS'C00663'
p3512
(lp3513
sS'C00662'
p3514
(lp3515
sS'C15485'
p3516
(lp3517
sS'C00114'
p3518
(lp3519
sS'C00117'
p3520
(lp3521
sS'C00116'
p3522
(lp3523
sS'C00111'
p3524
(lp3525
sS'C00110'
p3526
(lp3527
sS'C00113'
p3528
(lp3529
sS'C00112'
p3530
(lp3531
sS'C00119'
p3532
(lp3533
sS'C00118'
p3534
(lp3535
sS'C07092'
p3536
(lp3537
sS'C11928'
p3538
(lp3539
sS'C11929'
p3540
(lp3541
sS'C05196'
p3542
(lp3543
sS'C05197'
p3544
(lp3545
sS'C05194'
p3546
(lp3547
sS'C05195'
p3548
(lp3549
sS'C11926'
p3550
(lp3551
sS'C05193'
p3552
(lp3553
sS'C05190'
p3554
(lp3555
sS'C05191'
p3556
(lp3557
sS'C05752'
p3558
(lp3559
sS'C05754'
p3560
(lp3561
sS'C05755'
p3562
(lp3563
sS'C05757'
p3564
(lp3565
sS'C17213'
p3566
(lp3567
sS'C11036'
p3568
(lp3569
sS'C11038'
p3570
(lp3571
sS'C10522'
p3572
(lp3573
sS'C11817'
p3574
(lp3575
sS'C16566'
p3576
(lp3577
sS'C12483'
p3578
(lp3579
sS'C11249'
p3580
(lp3581
sS'C17211'
p3582
(lp3583
sS'C01048'
p3584
(lp3585
sS'C12987'
p3586
(lp3587
sS'C01044'
p3588
(lp3589
sS'C01045'
p3590
(lp3591
sS'C01046'
p3592
(lp3593
sS'C01047'
p3594
(lp3595
sS'C01040'
p3596
(lp3597
sS'C01041'
p3598
(lp3599
sS'C01042'
p3600
(lp3601
sS'C01043'
p3602
(lp3603
sS'C11148'
p3604
(lp3605
sS'C16251'
p3606
(lp3607
sS'C13425'
p3608
(lp3609
sS'C04768'
p3610
(lp3611
sS'C04814'
p3612
(lp3613
sS'C04767'
p3614
(lp3615
sS'C04816'
p3616
(lp3617
sS'C04817'
p3618
(lp3619
sS'C04763'
p3620
(lp3621
sS'C04760'
p3622
(lp3623
sS'C12366'
p3624
(lp3625
sS'C15647'
p3626
(lp3627
sS'C15646'
p3628
(lp3629
sS'C11921'
p3630
(lp3631
sS'C16462'
p3632
(lp3633
sS'C06377'
p3634
(lp3635
sS'C16461'
p3636
(lp3637
sS'C16466'
p3638
(lp3639
sS'C16467'
p3640
(lp3641
sS'C16464'
p3642
(lp3643
sS'C06376'
p3644
(lp3645
sS'C16468'
p3646
(lp3647
sS'C16469'
p3648
(lp3649
sS'C16441'
p3650
(lp3651
sS'C05361'
p3652
(lp3653
sS'C02400'
p3654
(lp3655
sS'C06374'
p3656
(lp3657
sS'C05364'
p3658
(lp3659
sS'C12203'
p3660
(lp3661
sS'C13636'
p3662
(lp3663
sS'C16650'
p3664
(lp3665
sS'C11911'
p3666
(lp3667
sS'C16653'
p3668
(lp3669
sS'C12206'
p3670
(lp3671
sS'C11398'
p3672
(lp3673
sS'C01448'
p3674
(lp3675
sS'C01449'
p3676
(lp3677
sS'C01198'
p3678
(lp3679
sS'C06394'
p3680
(lp3681
sS'C12204'
p3682
(lp3683
sS'C14602'
p3684
(lp3685
sS'C01190'
p3686
(lp3687
sS'C01191'
p3688
(lp3689
sS'C01444'
p3690
(lp3691
sS'C01197'
p3692
(lp3693
sS'C01194'
p3694
(lp3695
sS'C11453'
p3696
(lp3697
sS'C07272'
p3698
(lp3699
sS'C05682'
p3700
(lp3701
sS'C06813'
p3702
(lp3703
sS'C03622'
p3704
(lp3705
sS'C13378'
p3706
(lp3707
sS'C02090'
p3708
(lp3709
sS'C11700'
p3710
(lp3711
sS'C03043'
p3712
(lp3713
sS'C02091'
p3714
(lp3715
sS'C02041'
p3716
(lp3717
sS'C17215'
p3718
(lp3719
sS'C09126'
p3720
(lp3721
sS'C01225'
p3722
(lp3723
sS'C02249'
p3724
(lp3725
sS'C01227'
p3726
(lp3727
sS'C01996'
p3728
(lp3729
sS'C01221'
p3730
(lp3731
sS'C01222'
p3732
(lp3733
sS'C05963'
p3734
(lp3735
sS'C03514'
p3736
(lp3737
sS'C02537'
p3738
(lp3739
sS'C01228'
p3740
(lp3741
sS'C02530'
p3742
(lp3743
sS'C05965'
p3744
(lp3745
sS'C02244'
p3746
(lp3747
sS'C04586'
p3748
(lp3749
sS'C11816'
p3750
(lp3751
sS'C16720'
p3752
(lp3753
sS'C04582'
p3754
(lp3755
sS'C04581'
p3756
(lp3757
sS'C15983'
p3758
(lp3759
sS'C05688'
p3760
(lp3761
sS'C02879'
p3762
(lp3763
sS'C05985'
p3764
(lp3765
sS'C05984'
p3766
(lp3767
sS'C05689'
p3768
(lp3769
sS'C05981'
p3770
(lp3771
sS'C02308'
p3772
(lp3773
sS'C05983'
p3774
(lp3775
sS'C04900'
p3776
(lp3777
sS'C11813'
p3778
(lp3779
sS'C02306'
p3780
(lp3781
sS'C03598'
p3782
(lp3783
sS'C11810'
p3784
(lp3785
sS'C02307'
p3786
(lp3787
sS'C03594'
p3788
(lp3789
sS'C03595'
p3790
(lp3791
sS'C11811'
p3792
(lp3793
sS'C03590'
p3794
(lp3795
sS'C11638'
p3796
(lp3797
sS'C02336'
p3798
(lp3799
sS'C02335'
p3800
(lp3801
sS'C05961'
p3802
(lp3803
sS'C06328'
p3804
(lp3805
sS'C06329'
p3806
(lp3807
sS'C03758'
p3808
(lp3809
sS'C16602'
p3810
(lp3811
sS'C06325'
p3812
(lp3813
sS'C06326'
p3814
(lp3815
sS'C16601'
p3816
(lp3817
sS'C03752'
p3818
(lp3819
sS'C06321'
p3820
(lp3821
sS'C03750'
p3822
(lp3823
sS'C03203'
p3824
(lp3825
sS'C01533'
p3826
(lp3827
sS'C15585'
p3828
(lp3829
sS'C01537'
p3830
(lp3831
sS'C02621'
p3832
(lp3833
sS'C06899'
p3834
(lp3835
sS'C02623'
p3836
(lp3837
sS'C02625'
p3838
(lp3839
sS'C01037'
p3840
(lp3841
sS'C04516'
p3842
(lp3843
sS'C06647'
p3844
(lp3845
sS'C01747'
p3846
(lp3847
sS'C12443'
p3848
(lp3849
sS'C05694'
p3850
(lp3851
sS'C16482'
p3852
(lp3853
sS'C06188'
p3854
(lp3855
sS'C07123'
p3856
(lp3857
sS'C08616'
p3858
(lp3859
sS'C06559'
p3860
(lp3861
sS'C08614'
p3862
(lp3863
sS'C12423'
p3864
(lp3865
sS'C06180'
p3866
(lp3867
sS'C06181'
p3868
(lp3869
sS'C06182'
p3870
(lp3871
sS'C14863'
p3872
(lp3873
sS'C06184'
p3874
(lp3875
sS'C06186'
p3876
(lp3877
sS'C06187'
p3878
(lp3879
sS'C02753'
p3880
(lp3881
sS'C02752'
p3882
(lp3883
sS'C03112'
p3884
(lp3885
sS'C06433'
p3886
(lp3887
sS'C03114'
p3888
(lp3889
sS'C06435'
p3890
(lp3891
sS'C03117'
p3892
(lp3893
sS'C06610'
p3894
(lp3895
sS'C00744'
p3896
(lp3897
sS'C06612'
p3898
(lp3899
sS'C06613'
p3900
(lp3901
sS'C06614'
p3902
(lp3903
sS'C04367'
p3904
(lp3905
sS'C06616'
p3906
(lp3907
sS'C00872'
p3908
(lp3909
sS'C00870'
p3910
(lp3911
sS'C00747'
p3912
(lp3913
sS'C00876'
p3914
(lp3915
sS'C00877'
p3916
(lp3917
sS'C09024'
p3918
(lp3919
sS'C16273'
p3920
(lp3921
sS'C16272'
p3922
(lp3923
sS'C00878'
p3924
(lp3925
sS'C00879'
p3926
(lp3927
sS'C11557'
p3928
(lp3929
sS'C11555'
p3930
(lp3931
sS'C11554'
p3932
(lp3933
sS'C03374'
p3934
(lp3935
sS'C03372'
p3936
(lp3937
sS'C14865'
p3938
(lp3939
sS'C16075'
p3940
(lp3941
sS'C16074'
p3942
(lp3943
sS'C15989'
p3944
(lp3945
sS'C03576'
p3946
(lp3947
sS'C06505'
p3948
(lp3949
sS'C06506'
p3950
(lp3951
sS'C06055'
p3952
(lp3953
sS'C03572'
p3954
(lp3955
sS'C03573'
p3956
(lp3957
sS'C06051'
p3958
(lp3959
sS'C07054'
p3960
(lp3961
sS'C08725'
p3962
(lp3963
sS'C06508'
p3964
(lp3965
sS'C06509'
p3966
(lp3967
sS'C03578'
p3968
(lp3969
sS'C06059'
p3970
(lp3971
sS'C00588'
p3972
(lp3973
sS'C05481'
p3974
(lp3975
sS'C08540'
p3976
(lp3977
sS'C05560'
p3978
(lp3979
sS'C00582'
p3980
(lp3981
sS'C00583'
p3982
(lp3983
sS'C00580'
p3984
(lp3985
sS'C00581'
p3986
(lp3987
sS'C09893'
p3988
(lp3989
sS'C00587'
p3990
(lp3991
sS'C00584'
p3992
(lp3993
sS'C00585'
p3994
(lp3995
sS'C03979'
p3996
(lp3997
sS'C03972'
p3998
(lp3999
sS'C06599'
p4000
(lp4001
sS'C03974'
p4002
(lp4003
sS'C07585'
p4004
(lp4005
sS'C14867'
p4006
(lp4007
sS'C12444'
p4008
(lp4009
sS'C00279'
p4010
(lp4011
sS'C00908'
p4012
(lp4013
sS'C00909'
p4014
(lp4015
sS'C00906'
p4016
(lp4017
sS'C00275'
p4018
(lp4019
sS'C00904'
p4020
(lp4021
sS'C00270'
p4022
(lp4023
sS'C00903'
p4024
(lp4025
sS'C00272'
p4026
(lp4027
sS'C12350'
p4028
(lp4029
sS'C12354'
p4030
(lp4031
sS'C12355'
p4032
(lp4033
sS'C12356'
p4034
(lp4035
sS'C00479'
p4036
(lp4037
sS'C11481'
p4038
(lp4039
sS'C00477'
p4040
(lp4041
sS'C00474'
p4042
(lp4043
sS'C00475'
p4044
(lp4045
sS'C00472'
p4046
(lp4047
sS'C00473'
p4048
(lp4049
sS'C00470'
p4050
(lp4051
sS'C07276'
p4052
(lp4053
sS'C00296'
p4054
(lp4055
sS'C00294'
p4056
(lp4057
sS'C05692'
p4058
(lp4059
sS'C00292'
p4060
(lp4061
sS'C06504'
p4062
(lp4063
sS'C05697'
p4064
(lp4065
sS'C00291'
p4066
(lp4067
sS'C05699'
p4068
(lp4069
sS'C05698'
p4070
(lp4071
sS'C11807'
p4072
(lp4073
sS'C16281'
p4074
(lp4075
sS'C00299'
p4076
(lp4077
sS'C03803'
p4078
(lp4079
sS'C16340'
p4080
(lp4081
sS'C03808'
p4082
(lp4083
sS'C12434'
p4084
(lp4085
sS'C06791'
p4086
(lp4087
sS'C04109'
p4088
(lp4089
sS'C11736'
p4090
(lp4091
sS'C11735'
p4092
(lp4093
sS'C11867'
p4094
(lp4095
sS'C12436'
p4096
(lp4097
sS'C04105'
p4098
(lp4099
sS'C16295'
p4100
(lp4101
sS'C16294'
p4102
(lp4103
sS'C00618'
p4104
(lp4105
sS'C05234'
p4106
(lp4107
sS'C11641'
p4108
(lp4109
sS'C12438'
p4110
(lp4111
sS'C00613'
p4112
(lp4113
sS'C07479'
p4114
(lp4115
sS'C00611'
p4116
(lp4117
sS'C00616'
p4118
(lp4119
sS'C00617'
p4120
(lp4121
sS'C00614'
p4122
(lp4123
sS'C00615'
p4124
(lp4125
sS'C00120'
p4126
(lp4127
sS'C00121'
p4128
(lp4129
sS'C00122'
p4130
(lp4131
sS'C00123'
p4132
(lp4133
sS'C00124'
p4134
(lp4135
sS'C00125'
p4136
(lp4137
sS'C00126'
p4138
(lp4139
sS'C00127'
p4140
(lp4141
sS'C00128'
p4142
(lp4143
sS'C00129'
p4144
(lp4145
sS'C15487'
p4146
(lp4147
sS'C11939'
p4148
(lp4149
sS'C11938'
p4150
(lp4151
sS'C05189'
p4152
(lp4153
sS'C11931'
p4154
(lp4155
sS'C11930'
p4156
(lp4157
sS'C11933'
p4158
(lp4159
sS'C11932'
p4160
(lp4161
sS'C11935'
p4162
(lp4163
sS'C11934'
p4164
(lp4165
sS'C11937'
p4166
(lp4167
sS'C17239'
p4168
(lp4169
sS'C14039'
p4170
(lp4171
sS'C10517'
p4172
(lp4173
sS'C05749'
p4174
(lp4175
sS'C03029'
p4176
(lp4177
sS'C05747'
p4178
(lp4179
sS'C05745'
p4180
(lp4181
sS'C04618'
p4182
(lp4183
sS'C04619'
p4184
(lp4185
sS'C00054'
p4186
(lp4187
sS'C00727'
p4188
(lp4189
sS'C00725'
p4190
(lp4191
sS'C00722'
p4192
(lp4193
sS'C00051'
p4194
(lp4195
sS'C00052'
p4196
(lp4197
sS'C00053'
p4198
(lp4199
sS'C00058'
p4200
(lp4201
sS'C00059'
p4202
(lp4203
sS'C09099'
p4204
(lp4205
sS'C00729'
p4206
(lp4207
sS'C15521'
p4208
(lp4209
sS'C17230'
p4210
(lp4211
sS'C12399'
p4212
(lp4213
sS'C16388'
p4214
(lp4215
sS'C15488'
p4216
(lp4217
sS'C01059'
p4218
(lp4219
sS'C01058'
p4220
(lp4221
sS'C17232'
p4222
(lp4223
sS'C17259'
p4224
(lp4225
sS'C01053'
p4226
(lp4227
sS'C01051'
p4228
(lp4229
sS'C01050'
p4230
(lp4231
sS'C01056'
p4232
(lp4233
sS'C04575'
p4234
(lp4235
sS'C01054'
p4236
(lp4237
sS'C14727'
p4238
(lp4239
sS'C11885'
p4240
(lp4241
sS'C14725'
p4242
(lp4243
sS'C14724'
p4244
(lp4245
sS'C14723'
p4246
(lp4247
sS'C04778'
p4248
(lp4249
sS'C14721'
p4250
(lp4251
sS'C11884'
p4252
(lp4253
sS'C06988'
p4254
(lp4255
sS'C03024'
p4256
(lp4257
sS'C04776'
p4258
(lp4259
sS'C04807'
p4260
(lp4261
sS'C04773'
p4262
(lp4263
sS'C11886'
p4264
(lp4265
sS'C17265'
p4266
(lp4267
sS'C02105'
p4268
(lp4269
sS'C10469'
p4270
(lp4271
sS'C15974'
p4272
(lp4273
sS'C16471'
p4274
(lp4275
sS'C07639'
p4276
(lp4277
sS'C16473'
p4278
(lp4279
sS'C05335'
p4280
(lp4281
sS'C16475'
p4282
(lp4283
sS'C16474'
p4284
(lp4285
sS'C16477'
p4286
(lp4287
sS'C16476'
p4288
(lp4289
sS'C16479'
p4290
(lp4291
sS'C02100'
p4292
(lp4293
sS'C11922'
p4294
(lp4295
sS'C05528'
p4296
(lp4297
sS'C05359'
p4298
(lp4299
sS'C11925'
p4300
(lp4301
sS'C11923'
p4302
(lp4303
sS'C05356'
p4304
(lp4305
sS'C05357'
p4306
(lp4307
sS'C02430'
p4308
(lp4309
sS'C02431'
p4310
(lp4311
sS'C02432'
p4312
(lp4313
sS'C01456'
p4314
(lp4315
sS'C01455'
p4316
(lp4317
sS'C01454'
p4318
(lp4319
sS'C01451'
p4320
(lp4321
sS'C11927'
p4322
(lp4323
sS'C01189'
p4324
(lp4325
sS'C01188'
p4326
(lp4327
sS'C14610'
p4328
(lp4329
sS'C11924'
p4330
(lp4331
sS'C01181'
p4332
(lp4333
sS'C01180'
p4334
(lp4335
sS'C01183'
p4336
(lp4337
sS'C01182'
p4338
(lp4339
sS'C01185'
p4340
(lp4341
sS'C01187'
p4342
(lp4343
sS'C01186'
p4344
(lp4345
sS'C14147'
p4346
(lp4347
sS'C14146'
p4348
(lp4349
sS'C12093'
p4350
(lp4351
sS'C02378'
p4352
(lp4353
sS'C15204'
p4354
(lp4355
sS'C02508'
p4356
(lp4357
sS'C05229'
p4358
(lp4359
sS'C01983'
p4360
(lp4361
sS'C01230'
p4362
(lp4363
sS'C01236'
p4364
(lp4365
sS'C01987'
p4366
(lp4367
sS'C01234'
p4368
(lp4369
sS'C01989'
p4370
(lp4371
sS'C01988'
p4372
(lp4373
sS'C02502'
p4374
(lp4375
sS'C05223'
p4376
(lp4377
sS'C02504'
p4378
(lp4379
sS'C02505'
p4380
(lp4381
sS'C05226'
p4382
(lp4383
sS'C05227'
p4384
(lp4385
sS'C04597'
p4386
(lp4387
sS'C04596'
p4388
(lp4389
sS'C16011'
p4390
(lp4391
sS'C04590'
p4392
(lp4393
sS'C04593'
p4394
(lp4395
sS'C04592'
p4396
(lp4397
sS'C04599'
p4398
(lp4399
sS'C04598'
p4400
(lp4401
sS'C15589'
p4402
(lp4403
sS'C02290'
p4404
(lp4405
sS'C02291'
p4406
(lp4407
sS'C02293'
p4408
(lp4409
sS'C02294'
p4410
(lp4411
sS'C02295'
p4412
(lp4413
sS'C01957'
p4414
(lp4415
sS'C02298'
p4416
(lp4417
sS'C03588'
p4418
(lp4419
sS'C16267'
p4420
(lp4421
sS'C15928'
p4422
(lp4423
sS'C15926'
p4424
(lp4425
sS'C03582'
p4426
(lp4427
sS'C14148'
p4428
(lp4429
sS'C03586'
p4430
(lp4431
sS'C03585'
p4432
(lp4433
sS'C02614'
p4434
(lp4435
sS'C16618'
p4436
(lp4437
sS'C02616'
p4438
(lp4439
sS'C02341'
p4440
(lp4441
sS'C02347'
p4442
(lp4443
sS'C02612'
p4444
(lp4445
sS'C02613'
p4446
(lp4447
sS'C06333'
p4448
(lp4449
sS'C06332'
p4450
(lp4451
sS'C06331'
p4452
(lp4453
sS'C03210'
p4454
(lp4455
sS'C03217'
p4456
(lp4457
sS'C03740'
p4458
(lp4459
sS'C03743'
p4460
(lp4461
sS'C03742'
p4462
(lp4463
sS'C02185'
p4464
(lp4465
sS'C16260'
p4466
(lp4467
sS'C01529'
p4468
(lp4469
sS'C01528'
p4470
(lp4471
sS'C01526'
p4472
(lp4473
sS'C01525'
p4474
(lp4475
sS'C02188'
p4476
(lp4477
sS'C02189'
p4478
(lp4479
sS'C09825'
p4480
(lp4481
sS'C07335'
p4482
(lp4483
sS'C11902'
p4484
(lp4485
sS'C11498'
p4486
(lp4487
sS'C00189'
p4488
(lp4489
sS'C12640'
p4490
(lp4491
sS'C02282'
p4492
(lp4493
sS'C06197'
p4494
(lp4495
sS'C06194'
p4496
(lp4497
sS'C06193'
p4498
(lp4499
sS'C06192'
p4500
(lp4501
sS'C16329'
p4502
(lp4503
sS'C02280'
p4504
(lp4505
sS'C06198'
p4506
(lp4507
sS'C06427'
p4508
(lp4509
sS'C12641'
p4510
(lp4511
sS'C03105'
p4512
(lp4513
sS'C03103'
p4514
(lp4515
sS'C08604'
p4516
(lp4517
sS'C08606'
p4518
(lp4519
sS'C07114'
p4520
(lp4521
sS'C07111'
p4522
(lp4523
sS'C16262'
p4524
(lp4525
sS'C07113'
p4526
(lp4527
sS'C00825'
p4528
(lp4529
sS'C01417'
p4530
(lp4531
sS'C02768'
p4532
(lp4533
sS'C02985'
p4534
(lp4535
sS'C02986'
p4536
(lp4537
sS'C02987'
p4538
(lp4539
sS'C02980'
p4540
(lp4541
sS'C14813'
p4542
(lp4543
sS'C02982'
p4544
(lp4545
sS'C09823'
p4546
(lp4547
sS'C04373'
p4548
(lp4549
sS'C00530'
p4550
(lp4551
sS'C04375'
p4552
(lp4553
sS'C04377'
p4554
(lp4555
sS'C04376'
p4556
(lp4557
sS'C06607'
p4558
(lp4559
sS'C06606'
p4560
(lp4561
sS'C06605'
p4562
(lp4563
sS'C06604'
p4564
(lp4565
sS'C06603'
p4566
(lp4567
sS'C06600'
p4568
(lp4569
sS'C00861'
p4570
(lp4571
sS'C00860'
p4572
(lp4573
sS'C00863'
p4574
(lp4575
sS'C00865'
p4576
(lp4577
sS'C00864'
p4578
(lp4579
sS'C02960'
p4580
(lp4581
sS'C00868'
p4582
(lp4583
sS'C00822'
p4584
(lp4585
sS'C09820'
p4586
(lp4587
sS'C12484'
p4588
(lp4589
sS'C03361'
p4590
(lp4591
sS'C03360'
p4592
(lp4593
sS'C03365'
p4594
(lp4595
sS'C11250'
p4596
(lp4597
sS'C06124'
p4598
(lp4599
sS'C04485'
p4600
(lp4601
sS'C06044'
p4602
(lp4603
sS'C03567'
p4604
(lp4605
sS'C06125'
p4606
(lp4607
sS'C03561'
p4608
(lp4609
sS'C06040'
p4610
(lp4611
sS'C08735'
p4612
(lp4613
sS'C06650'
p4614
(lp4615
sS'C06519'
p4616
(lp4617
sS'C03569'
p4618
(lp4619
sS'C06048'
p4620
(lp4621
sS'C06161'
p4622
(lp4623
sS'C06019'
p4624
(lp4625
sS'C05512'
p4626
(lp4627
sS'C05513'
p4628
(lp4629
sS'C07643'
p4630
(lp4631
sS'C12482'
p4632
(lp4633
sS'C07646'
p4634
(lp4635
sS'C05515'
p4636
(lp4637
sS'C00591'
p4638
(lp4639
sS'C00590'
p4640
(lp4641
sS'C00593'
p4642
(lp4643
sS'C06653'
p4644
(lp4645
sS'C00596'
p4646
(lp4647
sS'C03968'
p4648
(lp4649
sS'C03961'
p4650
(lp4651
sS'C03963'
p4652
(lp4653
sS'C03964'
p4654
(lp4655
sS'C00269'
p4656
(lp4657
sS'C00268'
p4658
(lp4659
sS'C00919'
p4660
(lp4661
sS'C00918'
p4662
(lp4663
sS'C00263'
p4664
(lp4665
sS'C00262'
p4666
(lp4667
sS'C00261'
p4668
(lp4669
sS'C00916'
p4670
(lp4671
sS'C00267'
p4672
(lp4673
sS'C00266'
p4674
(lp4675
sS'C12092'
p4676
(lp4677
sS'C04404'
p4678
(lp4679
sS'C00469'
p4680
(lp4681
sS'C00468'
p4682
(lp4683
sS'C12349'
p4684
(lp4685
sS'C12348'
p4686
(lp4687
sS'C00464'
p4688
(lp4689
sS'C00466'
p4690
(lp4691
sS'C00461'
p4692
(lp4693
sS'C00460'
p4694
(lp4695
sS'C00463'
p4696
(lp4697
sS'C02814'
p4698
(lp4699
sS'C12834'
p4700
(lp4701
sS'C12837'
p4702
(lp4703
sS'C00286'
p4704
(lp4705
sS'C12831'
p4706
(lp4707
sS'C00280'
p4708
(lp4709
sS'C00283'
p4710
(lp4711
sS'C00282'
p4712
(lp4713
sS'C11830'
p4714
(lp4715
sS'C11831'
p4716
(lp4717
sS'C11832'
p4718
(lp4719
sS'C00288'
p4720
(lp4721
sS'C14852'
p4722
(lp4723
sS'C03817'
p4724
(lp4725
sS'C05427'
p4726
(lp4727
sS'C11909'
p4728
(lp4729
sS'C05422'
p4730
(lp4731
sS'C04566'
p4732
(lp4733
sS'C05421'
p4734
(lp4735
sS'C04118'
p4736
(lp4737
sS'C04115'
p4738
(lp4739
sS'C04561'
p4740
(lp4741
sS'C00609'
p4742
(lp4743
sS'C01920'
p4744
(lp4745
sS'C00601'
p4746
(lp4747
sS'C00603'
p4748
(lp4749
sS'C00602'
p4750
(lp4751
sS'C00605'
p4752
(lp4753
sS'C07480'
p4754
(lp4755
sS'C00606'
p4756
(lp4757
sS'C11904'
p4758
(lp4759
sS'C11905'
p4760
(lp4761
sS'C11907'
p4762
(lp4763
sS'C11900'
p4764
(lp4765
sS'C01925'
p4766
(lp4767
sS'C00139'
p4768
(lp4769
sS'C00138'
p4770
(lp4771
sS'C00137'
p4772
(lp4773
sS'C00136'
p4774
(lp4775
sS'C00135'
p4776
(lp4777
sS'C00134'
p4778
(lp4779
sS'C00133'
p4780
(lp4781
sS'C00132'
p4782
(lp4783
sS'C00131'
p4784
(lp4785
sS'C00130'
p4786
(lp4787
sS'C02199'
p4788
(lp4789
sS'C10503'
p4790
(lp4791
sS'C04604'
p4792
(lp4793
sS'C01883'
p4794
(lp4795
sS'C15025'
p4796
(lp4797
sS'C05324'
p4798
(lp4799
sS'C05730'
p4800
(lp4801
sS'C12317'
p4802
(lp4803
sS'C04608'
p4804
(lp4805
sS'C11919'
p4806
(lp4807
sS'C00043'
p4808
(lp4809
sS'C00042'
p4810
(lp4811
sS'C00041'
p4812
(lp4813
sS'C00040'
p4814
(lp4815
sS'C00047'
p4816
(lp4817
sS'C00046'
p4818
(lp4819
sS'C00045'
p4820
(lp4821
sS'C00044'
p4822
(lp4823
sS'C00049'
p4824
(lp4825
sS'C00048'
p4826
(lp4827
sS'C00739'
p4828
(lp4829
sS'C00738'
p4830
(lp4831
sS'C03920'
p4832
(lp4833
sS'C16218'
p4834
(lp4835
sS'C11551'
p4836
(lp4837
sS'C17087'
p4838
(lp4839
sS'C16252'
p4840
(lp4841
sS'C17248'
p4842
(lp4843
sS'C17244'
p4844
(lp4845
sS'C17241'
p4846
(lp4847
sS'C01650'
p4848
(lp4849
sS'C17243'
p4850
(lp4851
sS'C17242'
p4852
(lp4853
sS'C16352'
p4854
(lp4855
sS'C05641'
p4856
(lp4857
sS'C04741'
p4858
(lp4859
sS'C04742'
p4860
(lp4861
sS'C05648'
p4862
(lp4863
sS'C06990'
p4864
(lp4865
sS'C01653'
p4866
(lp4867
sS'C14866'
p4868
(lp4869
sS'C16449'
p4870
(lp4871
sS'C16445'
p4872
(lp4873
sS'C16447'
p4874
(lp4875
sS'C06016'
p4876
(lp4877
sS'C04384'
p4878
(lp4879
sS'C05341'
p4880
(lp4881
sS'C05340'
p4882
(lp4883
sS'C05345'
p4884
(lp4885
sS'C04902'
p4886
(lp4887
sS'C04903'
p4888
(lp4889
sS'C01420'
p4890
(lp4891
sS'C04906'
p4892
(lp4893
sS'C01424'
p4894
(lp4895
sS'C04905'
p4896
(lp4897
sS'C14103'
p4898
(lp4899
sS'C04909'
p4900
(lp4901
sS'C11428'
p4902
(lp4903
sS'C10107'
p4904
(lp4905
sS'C16399'
p4906
(lp4907
sS'C06586'
p4908
(lp4909
sS'C01753'
p4910
(lp4911
sS'C02515'
p4912
(lp4913
sS'C02514'
p4914
(lp4915
sS'C02513'
p4916
(lp4917
sS'C02512'
p4918
(lp4919
sS'C05231'
p4920
(lp4921
sS'C02519'
p4922
(lp4923
sS'C16253'
p4924
(lp4925
sS'C16593'
p4926
(lp4927
sS'C16465'
p4928
(lp4929
sS'C16596'
p4930
(lp4931
sS'C16597'
p4932
(lp4933
sS'C16594'
p4934
(lp4935
sS'C16595'
p4936
(lp4937
sS'C01080'
p4938
(lp4939
sS'C01081'
p4940
(lp4941
sS'C01083'
p4942
(lp4943
sS'C01086'
p4944
(lp4945
sS'C01739'
p4946
(lp4947
sS'C01088'
p4948
(lp4949
sS'C01089'
p4950
(lp4951
sS'C01735'
p4952
(lp4953
sS'C01732'
p4954
(lp4955
sS'C02074'
p4956
(lp4957
sS'C01953'
p4958
(lp4959
sS'C02289'
p4960
(lp4961
sS'C02075'
p4962
(lp4963
sS'C02287'
p4964
(lp4965
sS'C12367'
p4966
(lp4967
sS'C02284'
p4968
(lp4969
sS'C03079'
p4970
(lp4971
sS'C01958'
p4972
(lp4973
sS'C01959'
p4974
(lp4975
sS'C00898'
p4976
(lp4977
sS'C06598'
p4978
(lp4979
sS'C00899'
p4980
(lp4981
sS'C15935'
p4982
(lp4983
sS'C11822'
p4984
(lp4985
sS'C15933'
p4986
(lp4987
sS'C02350'
p4988
(lp4989
sS'C02353'
p4990
(lp4991
sS'C02352'
p4992
(lp4993
sS'C02355'
p4994
(lp4995
sS'C02354'
p4996
(lp4997
sS'C02357'
p4998
(lp4999
sS'C05360'
p5000
(lp5001
sS'C02359'
p5002
(lp5003
sS'C03771'
p5004
(lp5005
sS'C03772'
p5006
(lp5007
sS'C06455'
p5008
(lp5009
sS'C01659'
p5010
(lp5011
sS'C01888'
p5012
(lp5013
sS'C16138'
p5014
(lp5015
sS'C02191'
p5016
(lp5017
sS'C17017'
p5018
(lp5019
sS'C02632'
p5020
(lp5021
sS'C01880'
p5022
(lp5023
sS'C01550'
p5024
(lp5025
sS'C01551'
p5026
(lp5027
sS'C16203'
p5028
(lp5029
sS'C01885'
p5030
(lp5031
sS'C11386'
p5032
(lp5033
sS'C03179'
p5034
(lp5035
sS'C06597'
p5036
(lp5037
sS'C07100'
p5038
(lp5039
sS'C03483'
p5040
(lp5041
sS'C02480'
p5042
(lp5043
sS'C03485'
p5044
(lp5045
sS'C06452'
p5046
(lp5047
sS'C03170'
p5048
(lp5049
sS'C12146'
p5050
(lp5051
sS'C06456'
p5052
(lp5053
sS'C08639'
p5054
(lp5055
sS'C03174'
p5056
(lp5057
sS'C03175'
p5058
(lp5059
sS'C07103'
p5060
(lp5061
sS'C07102'
p5062
(lp5063
sS'C03178'
p5064
(lp5065
sS'C06459'
p5066
(lp5067
sS'C16562'
p5068
(lp5069
sS'C12635'
p5070
(lp5071
sS'C02999'
p5072
(lp5073
sS'C02998'
p5074
(lp5075
sS'C02779'
p5076
(lp5077
sS'C02778'
p5078
(lp5079
sS'C04555'
p5080
(lp5081
sS'C02775'
p5082
(lp5083
sS'C02774'
p5084
(lp5085
sS'C02773'
p5086
(lp5087
sS'C02995'
p5088
(lp5089
sS'C02673'
p5090
(lp5091
sS'C06678'
p5092
(lp5093
sS'C06679'
p5094
(lp5095
sS'C04348'
p5096
(lp5097
sS'C05802'
p5098
(lp5099
sS'C06672'
p5100
(lp5101
sS'C04346'
p5102
(lp5103
sS'C05803'
p5104
(lp5105
sS'C06676'
p5106
(lp5107
sS'C06677'
p5108
(lp5109
sS'C06674'
p5110
(lp5111
sS'C06675'
p5112
(lp5113
sS'C02777'
p5114
(lp5115
sS'C02977'
p5116
(lp5117
sS'C00858'
p5118
(lp5119
sS'C00859'
p5120
(lp5121
sS'C14857'
p5122
(lp5123
sS'C02972'
p5124
(lp5125
sS'C00855'
p5126
(lp5127
sS'C00856'
p5128
(lp5129
sS'C00857'
p5130
(lp5131
sS'C02979'
p5132
(lp5133
sS'C02991'
p5134
(lp5135
sS'C00852'
p5136
(lp5137
sS'C00853'
p5138
(lp5139
sS'C07075'
p5140
(lp5141
sS'C07073'
p5142
(lp5143
sS'C16365'
p5144
(lp5145
sS'C03394'
p5146
(lp5147
sS'C03392'
p5148
(lp5149
sS'C03393'
p5150
(lp5151
sS'C05809'
p5152
(lp5153
sS'C06070'
p5154
(lp5155
sS'C06071'
p5156
(lp5157
sS'C02771'
p5158
(lp5159
sS'C03557'
p5160
(lp5161
sS'C03004'
p5162
(lp5163
sS'C03005'
p5164
(lp5165
sS'C03000'
p5166
(lp5167
sS'C05501'
p5168
(lp5169
sS'C03955'
p5170
(lp5171
sS'C03956'
p5172
(lp5173
sS'C05502'
p5174
(lp5175
sS'C03951'
p5176
(lp5177
sS'C06701'
p5178
(lp5179
sS'C03959'
p5180
(lp5181
sS'C07089'
p5182
(lp5183
sS'C11130'
p5184
(lp5185
sS'C04298'
p5186
(lp5187
sS'C04299'
p5188
(lp5189
sS'C03093'
p5190
(lp5191
sS'C00921'
p5192
(lp5193
sS'C00922'
p5194
(lp5195
sS'C00923'
p5196
(lp5197
sS'C00924'
p5198
(lp5199
sS'C04297'
p5200
(lp5201
sS'C04294'
p5202
(lp5203
sS'C00927'
p5204
(lp5205
sS'C00458'
p5206
(lp5207
sS'C00459'
p5208
(lp5209
sS'C09107'
p5210
(lp5211
sS'C00450'
p5212
(lp5213
sS'C00451'
p5214
(lp5215
sS'C12622'
p5216
(lp5217
sS'C12623'
p5218
(lp5219
sS'C00454'
p5220
(lp5221
sS'C00455'
p5222
(lp5223
sS'C12626'
p5224
(lp5225
sS'C12425'
p5226
(lp5227
sS'C16608'
p5228
(lp5229
sS'C06579'
p5230
(lp5231
sS'C16833'
p5232
(lp5233
sS'C16832'
p5234
(lp5235
sS'C10216'
p5236
(lp5237
sS'C07087'
p5238
(lp5239
sS'C03820'
p5240
(lp5241
sS'C04125'
p5242
(lp5243
sS'C10660'
p5244
(lp5245
sS'C03823'
p5246
(lp5247
sS'C03824'
p5248
(lp5249
sS'C04121'
p5250
(lp5251
sS'C03826'
p5252
(lp5253
sS'C05435'
p5254
(lp5255
sS'C05434'
p5256
(lp5257
sS'C05437'
p5258
(lp5259
sS'C07085'
p5260
(lp5261
sS'C04128'
p5262
(lp5263
sS'C05430'
p5264
(lp5265
sS'C05433'
p5266
(lp5267
sS'C05432'
p5268
(lp5269
sS'C16228'
p5270
(lp5271
sS'C00636'
p5272
(lp5273
sS'C00637'
p5274
(lp5275
sS'C00630'
p5276
(lp5277
sS'C00631'
p5278
(lp5279
sS'C00632'
p5280
(lp5281
sS'C00633'
p5282
(lp5283
sS'C16311'
p5284
(lp5285
sS'C00638'
p5286
(lp5287
sS'C00639'
p5288
(lp5289
sS'C13550'
p5290
(lp5291
sS'C12246'
p5292
(lp5293
sS'C12247'
p5294
(lp5295
sS'C12369'
p5296
(lp5297
sS'C07496'
p5298
(lp5299
sS'C07490'
p5300
(lp5301
sS'C12248'
p5302
(lp5303
sS'C12249'
p5304
(lp5305
sS'C11912'
p5306
(lp5307
sS'C00148'
p5308
(lp5309
sS'C00149'
p5310
(lp5311
sS'C11916'
p5312
(lp5313
sS'C11915'
p5314
(lp5315
sS'C00143'
p5316
(lp5317
sS'C00140'
p5318
(lp5319
sS'C00141'
p5320
(lp5321
sS'C00146'
p5322
(lp5323
sS'C00147'
p5324
(lp5325
sS'C00144'
p5326
(lp5327
sS'C00145'
p5328
(lp5329
sS'C16354'
p5330
(lp5331
sS'C04630'
p5332
(lp5333
sS'C00645'
p5334
(lp5335
sS'C04632'
p5336
(lp5337
sS'C04633'
p5338
(lp5339
sS'C04635'
p5340
(lp5341
sS'C00312'
p5342
(lp5343
sS'C15584'
p5344
(lp5345
sS'C00850'
p5346
(lp5347
sS'C15586'
p5348
(lp5349
sS'C00311'
p5350
(lp5351
sS'C05726'
p5352
(lp5353
sS'C00700'
p5354
(lp5355
sS'C00701'
p5356
(lp5357
sS'C11825'
p5358
(lp5359
sS'C00704'
p5360
(lp5361
sS'C00705'
p5362
(lp5363
sS'C00706'
p5364
(lp5365
sS'C00708'
p5366
(lp5367
sS'C11829'
p5368
(lp5369
sS'C15566'
p5370
(lp5371
sS'C15567'
p5372
(lp5373
sS'C15564'
p5374
(lp5375
sS'C04506'
p5376
(lp5377
sS'C00643'
p5378
(lp5379
sS'C15560'
p5380
(lp5381
sS'C15561'
p5382
(lp5383
sS'C11908'
p5384
(lp5385
sS'C00642'
p5386
(lp5387
sS'C15568'
p5388
(lp5389
sS'C15941'
p5390
(lp5391
sS'C04756'
p5392
(lp5393
sS'C04755'
p5394
(lp5395
sS'C16357'
p5396
(lp5397
sS'C04752'
p5398
(lp5399
sS'C04751'
p5400
(lp5401
sS'C00763'
p5402
(lp5403
sS'C05011'
p5404
(lp5405
sS'C00760'
p5406
(lp5407
sS'C17276'
p5408
(lp5409
sS'C14118'
p5410
(lp5411
sS'C05654'
p5412
(lp5413
sS'C00761'
p5414
(lp5415
sS'C05651'
p5416
(lp5417
sS'C05650'
p5418
(lp5419
sS'C05653'
p5420
(lp5421
sS'C05652'
p5422
(lp5423
sS'C00766'
p5424
(lp5425
sS'C09762'
p5426
(lp5427
sS'C03864'
p5428
(lp5429
sS'C05658'
p5430
(lp5431
sS'C00767'
p5432
(lp5433
sS'C15699'
p5434
(lp5435
sS'C14180'
p5436
(lp5437
sS'C01289'
p5438
(lp5439
sS'C17212'
p5440
(lp5441
sS'C14098'
p5442
(lp5443
sS'C15543'
p5444
(lp5445
sS'C11547'
p5446
(lp5447
sS'C16489'
p5448
(lp5449
sS'C04911'
p5450
(lp5451
sS'C04910'
p5452
(lp5453
sS'C01433'
p5454
(lp5455
sS'C04914'
p5456
(lp5457
sS'C04916'
p5458
(lp5459
sS'C04919'
p5460
(lp5461
sS'C01438'
p5462
(lp5463
sS'C15547'
p5464
(lp5465
sS'C11349'
p5466
(lp5467
sS'C15548'
p5468
(lp5469
sS'C08538'
p5470
(lp5471
sS'C15549'
p5472
(lp5473
sS'C16247'
p5474
(lp5475
sS'C17218'
p5476
(lp5477
sS'C14092'
p5478
(lp5479
sS'C09812'
p5480
(lp5481
sS'C01993'
p5482
(lp5483
sS'C14419'
p5484
(lp5485
sS'C01990'
p5486
(lp5487
sS'C11541'
p5488
(lp5489
sS'C05243'
p5490
(lp5491
sS'C02567'
p5492
(lp5493
sS'C02564'
p5494
(lp5495
sS'C02565'
p5496
(lp5497
sS'C01220'
p5498
(lp5499
sS'C02538'
p5500
(lp5501
sS'C16589'
p5502
(lp5503
sS'C16588'
p5504
(lp5505
sS'C06103'
p5506
(lp5507
sS'C11941'
p5508
(lp5509
sS'C11942'
p5510
(lp5511
sS'C16587'
p5512
(lp5513
sS'C16586'
p5514
(lp5515
sS'C10858'
p5516
(lp5517
sS'C11943'
p5518
(lp5519
sS'C01099'
p5520
(lp5521
sS'C17234'
p5522
(lp5523
sS'C01097'
p5524
(lp5525
sS'C01096'
p5526
(lp5527
sS'C01094'
p5528
(lp5529
sS'C01721'
p5530
(lp5531
sS'C01092'
p5532
(lp5533
sS'C01091'
p5534
(lp5535
sS'C01090'
p5536
(lp5537
sS'C01944'
p5538
(lp5539
sS'C01946'
p5540
(lp5541
sS'C04468'
p5542
(lp5543
sS'C05172'
p5544
(lp5545
sS'C01943'
p5546
(lp5547
sS'C05500'
p5548
(lp5549
sS'C02247'
p5550
(lp5551
sS'C11543'
p5552
(lp5553
sS'C08980'
p5554
(lp5555
sS'C01229'
p5556
(lp5557
sS'C15908'
p5558
(lp5559
sS'C03766'
p5560
(lp5561
sS'C03765'
p5562
(lp5563
sS'C03764'
p5564
(lp5565
sS'C16636'
p5566
(lp5567
sS'C03761'
p5568
(lp5569
sS'C15900'
p5570
(lp5571
sS'C04195'
p5572
(lp5573
sS'C15902'
p5574
(lp5575
sS'C02532'
p5576
(lp5577
sS'C08565'
p5578
(lp5579
sS'C11588'
p5580
(lp5581
sS'C01893'
p5582
(lp5583
sS'C01892'
p5584
(lp5585
sS'C02364'
p5586
(lp5587
sS'C02366'
p5588
(lp5589
sS'C02367'
p5590
(lp5591
sS'C02362'
p5592
(lp5593
sS'C01548'
p5594
(lp5595
sS'C05396'
p5596
(lp5597
sS'C02166'
p5598
(lp5599
sS'C05399'
p5600
(lp5601
sS'C01542'
p5602
(lp5603
sS'C02163'
p5604
(lp5605
sS'C01546'
p5606
(lp5607
sS'C02385'
p5608
(lp5609
sS'C05860'
p5610
(lp5611
sS'C12989'
p5612
(lp5613
sS'C06442'
p5614
(lp5615
sS'C05868'
p5616
(lp5617
sS'C03493'
p5618
(lp5619
sS'C03492'
p5620
(lp5621
sS'C03495'
p5622
(lp5623
sS'C12106'
p5624
(lp5625
sS'C12109'
p5626
(lp5627
sS'C12108'
p5628
(lp5629
sS'C05519'
p5630
(lp5631
sS'C01345'
p5632
(lp5633
sS'C03161'
p5634
(lp5635
sS'C03160'
p5636
(lp5637
sS'C01344'
p5638
(lp5639
sS'C03164'
p5640
(lp5641
sS'C03167'
p5642
(lp5643
sS'C03169'
p5644
(lp5645
sS'C08620'
p5646
(lp5647
sS'C02478'
p5648
(lp5649
sS'C08624'
p5650
(lp5651
sS'C02703'
p5652
(lp5653
sS'C02700'
p5654
(lp5655
sS'C10860'
p5656
(lp5657
sS'C02706'
p5658
(lp5659
sS'C02707'
p5660
(lp5661
sS'C02704'
p5662
(lp5663
sS'C02705'
p5664
(lp5665
sS'C05674'
p5666
(lp5667
sS'C03219'
p5668
(lp5669
sS'C04353'
p5670
(lp5671
sS'C04352'
p5672
(lp5673
sS'C02940'
p5674
(lp5675
sS'C00848'
p5676
(lp5677
sS'C02944'
p5678
(lp5679
sS'C02947'
p5680
(lp5681
sS'C02949'
p5682
(lp5683
sS'C00841'
p5684
(lp5685
sS'C00847'
p5686
(lp5687
sS'C00846'
p5688
(lp5689
sS'C00845'
p5690
(lp5691
sS'C00844'
p5692
(lp5693
sS'C00925'
p5694
(lp5695
sS'C16283'
p5696
(lp5697
sS'C03387'
p5698
(lp5699
sS'C05958'
p5700
(lp5701
sS'C03383'
p5702
(lp5703
sS'C02013'
p5704
(lp5705
sS'C02010'
p5706
(lp5707
sS'C03548'
p5708
(lp5709
sS'C03015'
p5710
(lp5711
sS'C03546'
p5712
(lp5713
sS'C03544'
p5714
(lp5715
sS'C03541'
p5716
(lp5717
sS'C03012'
p5718
(lp5719
sS'C03943'
p5720
(lp5721
sS'C06714'
p5722
(lp5723
sS'C06717'
p5724
(lp5725
sS'C03947'
p5726
(lp5727
sS'C03946'
p5728
(lp5729
sS'C08579'
p5730
(lp5731
sS'C06712'
p5732
(lp5733
sS'C05535'
p5734
(lp5735
sS'C06719'
p5736
(lp5737
sS'C05533'
p5738
(lp5739
sS'C00937'
p5740
(lp5741
sS'C00935'
p5742
(lp5743
sS'C00934'
p5744
(lp5745
sS'C00933'
p5746
(lp5747
sS'C00931'
p5748
(lp5749
sS'C11691'
p5750
(lp5751
sS'C00447'
p5752
(lp5753
sS'C00446'
p5754
(lp5755
sS'C00445'
p5756
(lp5757
sS'C12634'
p5758
(lp5759
sS'C12633'
p5760
(lp5761
sS'C12632'
p5762
(lp5763
sS'C00441'
p5764
(lp5765
sS'C00440'
p5766
(lp5767
sS'C04281'
p5768
(lp5769
sS'C11457'
p5770
(lp5771
sS'C04283'
p5772
(lp5773
sS'C04282'
p5774
(lp5775
sS'C16333'
p5776
(lp5777
sS'C00449'
p5778
(lp5779
sS'C00448'
p5780
(lp5781
sS'C11500'
p5782
(lp5783
sS'C07718'
p5784
(lp5785
sS'C12988'
p5786
(lp5787
sS'C02497'
p5788
(lp5789
sS'C07715'
p5790
(lp5791
sS'C12325'
p5792
(lp5793
sS'C12324'
p5794
(lp5795
sS'C07535'
p5796
(lp5797
sS'C16165'
p5798
(lp5799
sS'C16224'
p5800
(lp5801
sS'C11505'
p5802
(lp5803
sS'C03530'
p5804
(lp5805
sS'C04131'
p5806
(lp5807
sS'C04137'
p5808
(lp5809
sS'C16226'
p5810
(lp5811
sS'C04135'
p5812
(lp5813
sS'C03838'
p5814
(lp5815
sS'C05400'
p5816
(lp5817
sS'C05401'
p5818
(lp5819
sS'C05402'
p5820
(lp5821
sS'C04295'
p5822
(lp5823
sS'C05404'
p5824
(lp5825
sS'C00623'
p5826
(lp5827
sS'C12628'
p5828
(lp5829
sS'C00621'
p5830
(lp5831
sS'C00620'
p5832
(lp5833
sS'C00627'
p5834
(lp5835
sS'C00625'
p5836
(lp5837
sS'C00624'
p5838
(lp5839
sS'C00628'
p5840
(lp5841
sS'C16933'
p5842
(lp5843
sS'C11215'
p5844
(lp5845
sS'C00159'
p5846
(lp5847
sS'C00158'
p5848
(lp5849
sS'C00151'
p5850
(lp5851
sS'C00153'
p5852
(lp5853
sS'C00152'
p5854
(lp5855
sS'C00155'
p5856
(lp5857
sS'C00154'
p5858
(lp5859
sS'C00157'
p5860
(lp5861
sS'C00156'
p5862
(lp5863
sS'C05714'
p5864
(lp5865
sS'C05715'
p5866
(lp5867
sS'C16609'
p5868
(lp5869
sS'C05710'
p5870
(lp5871
sS'C05712'
p5872
(lp5873
sS'C05713'
p5874
(lp5875
sS'C15583'
p5876
(lp5877
sS'C08012'
p5878
(lp5879
sS'C15599'
p5880
(lp5881
sS'C15598'
p5882
(lp5883
sS'C02331'
p5884
(lp5885
sS'C04628'
p5886
(lp5887
sS'C12624'
p5888
(lp5889
sS'C04625'
p5890
(lp5891
sS'C15590'
p5892
(lp5893
sS'C04623'
p5894
(lp5895
sS'C04540'
p5896
(lp5897
sS'C04621'
p5898
(lp5899
sS'C04620'
p5900
(lp5901
sS'C11676'
p5902
(lp5903
sS'C11853'
p5904
(lp5905
sS'C11850'
p5906
(lp5907
sS'C11675'
p5908
(lp5909
sS'C11672'
p5910
(lp5911
sS'C11673'
p5912
(lp5913
sS'C00719'
p5914
(lp5915
sS'C00718'
p5916
(lp5917
sS'C00717'
p5918
(lp5919
sS'C00716'
p5920
(lp5921
sS'C00715'
p5922
(lp5923
sS'C00714'
p5924
(lp5925
sS'C03206'
p5926
(lp5927
sS'C11678'
p5928
(lp5929
sS'C11679'
p5930
(lp5931
sS'C15575'
p5932
(lp5933
sS'C07212'
p5934
(lp5935
sS'C14088'
p5936
(lp5937
sS'C14089'
p5938
(lp5939
sS'C15571'
p5940
(lp5941
sS'C15570'
p5942
(lp5943
sS'C15573'
p5944
(lp5945
sS'C14082'
p5946
(lp5947
sS'C06320'
p5948
(lp5949
sS'C07101'
p5950
(lp5951
sS'C14086'
p5952
(lp5953
sS'C14087'
p5954
(lp5955
sS'C14084'
p5956
(lp5957
sS'C03201'
p5958
(lp5959
sS'C04722'
p5960
(lp5961
sS'C04720'
p5962
(lp5963
sS'C04726'
p5964
(lp5965
sS'C02339'
p5966
(lp5967
sS'C04724'
p5968
(lp5969
sS'C06323'
p5970
(lp5971
sS'C04548'
p5972
(lp5973
sS'C09751'
p5974
(lp5975
sS'C05662'
p5976
(lp5977
sS'C01380'
p5978
(lp5979
sS'C05665'
p5980
(lp5981
sS'C05668'
p5982
(lp5983
sS'C05669'
p5984
(lp5985
sS'C14770'
p5986
(lp5987
sS'C14771'
p5988
(lp5989
sS'C17323'
p5990
(lp5991
sS'C14177'
p5992
(lp5993
sS'C09736'
p5994
(lp5995
sS'C14792'
p5996
(lp5997
sS'C14793'
p5998
(lp5999
sS'C14791'
p6000
(lp6001
sS'C05919'
p6002
(lp6003
sS'C04927'
p6004
(lp6005
sS'C02588'
p6006
(lp6007
sS'C06330'
p6008
(lp6009
sS'C05915'
p6010
(lp6011
sS'C01408'
p6012
(lp6013
sS'C01158'
p6014
(lp6015
sS'C01159'
p6016
(lp6017
sS'C01156'
p6018
(lp6019
sS'C01405'
p6020
(lp6021
sS'C04434'
p6022
(lp6023
sS'C01155'
p6024
(lp6025
sS'C01152'
p6026
(lp6027
sS'C01153'
p6028
(lp6029
sS'C01402'
p6030
(lp6031
sS'C04431'
p6032
(lp6033
sS'C09848'
p6034
(lp6035
sS'C01144'
p6036
(lp6037
sS'C04427'
p6038
(lp6039
sS'C14314'
p6040
(lp6041
sS'C14315'
p6042
(lp6043
sS'C04426'
p6044
(lp6045
sS'C04122'
p6046
(lp6047
sS'C01141'
p6048
(lp6049
sS'C05250'
p6050
(lp6051
sS'C02575'
p6052
(lp6053
sS'C06134'
p6054
(lp6055
sS'C05258'
p6056
(lp6057
sS'C05431'
p6058
(lp6059
sS'C14556'
p6060
(lp6061
sS'C01710'
p6062
(lp6063
sS'C01714'
p6064
(lp6065
sS'C01717'
p6066
(lp6067
sS'C01972'
p6068
(lp6069
sS'C15914'
p6070
(lp6071
sS'C15911'
p6072
(lp6073
sS'C01977'
p6074
(lp6075
sS'C02342'
p6076
(lp6077
sS'C15919'
p6078
(lp6079
sS'C02909'
p6080
(lp6081
sS'C03710'
p6082
(lp6083
sS'C03716'
p6084
(lp6085
sS'C03719'
p6086
(lp6087
sS'C16480'
p6088
(lp6089
sS'C01575'
p6090
(lp6091
sS'C02379'
p6092
(lp6093
sS'C05898'
p6094
(lp6095
sS'C16484'
p6096
(lp6097
sS'C01572'
p6098
(lp6099
sS'C16487'
p6100
(lp6101
sS'C05893'
p6102
(lp6103
sS'C05892'
p6104
(lp6105
sS'C02371'
p6106
(lp6107
sS'C02370'
p6108
(lp6109
sS'C05897'
p6110
(lp6111
sS'C02376'
p6112
(lp6113
sS'C02375'
p6114
(lp6115
sS'C02374'
p6116
(lp6117
sS'C01372'
p6118
(lp6119
sS'C01371'
p6120
(lp6121
sS'C05385'
p6122
(lp6123
sS'C05382'
p6124
(lp6125
sS'C05381'
p6126
(lp6127
sS'C02172'
p6128
(lp6129
sS'C06388'
p6130
(lp6131
sS'C04044'
p6132
(lp6133
sS'C02391'
p6134
(lp6135
sS'C02390'
p6136
(lp6137
sS'C06382'
p6138
(lp6139
sS'C06383'
p6140
(lp6141
sS'C06380'
p6142
(lp6143
sS'C06381'
p6144
(lp6145
sS'C06387'
p6146
(lp6147
sS'C04042'
p6148
(lp6149
sS'C12138'
p6150
(lp6151
sS'C12135'
p6152
(lp6153
sS'C12136'
p6154
(lp6155
sS'C12137'
p6156
(lp6157
sS'C16159'
p6158
(lp6159
sS'C06479'
p6160
(lp6161
sS'C03626'
p6162
(lp6163
sS'C16153'
p6164
(lp6165
sS'C16150'
p6166
(lp6167
sS'C03625'
p6168
(lp6169
sS'C03150'
p6170
(lp6171
sS'C03623'
p6172
(lp6173
sS'C03620'
p6174
(lp6175
sS'C06473'
p6176
(lp6177
sS'C02718'
p6178
(lp6179
sS'C02713'
p6180
(lp6181
sS'C02715'
p6182
(lp6183
sS'C02714'
p6184
(lp6185
sS'C16733'
p6186
(lp6187
sS'C11814'
p6188
(lp6189
sS'C02956'
p6190
(lp6191
sS'C02953'
p6192
(lp6193
sS'C12525'
p6194
(lp6195
sS'C02951'
p6196
(lp6197
sS'C06026'
p6198
(lp6199
sS'C05306'
p6200
(lp6201
sS'C12000'
p6202
(lp6203
sS'C12001'
p6204
(lp6205
sS'C12002'
p6206
(lp6207
sS'C06024'
p6208
(lp6209
sS'C05305'
p6210
(lp6211
sS'C03028'
p6212
(lp6213
sS'C02004'
p6214
(lp6215
sS'C06018'
p6216
(lp6217
sS'C03539'
p6218
(lp6219
sS'C02001'
p6220
(lp6221
sS'C07493'
p6222
(lp6223
sS'C02003'
p6224
(lp6225
sS'C03021'
p6226
(lp6227
sS'C06010'
p6228
(lp6229
sS'C03023'
p6230
(lp6231
sS'C03536'
p6232
(lp6233
sS'C07836'
p6234
(lp6235
sS'C06720'
p6236
(lp6237
sS'C06721'
p6238
(lp6239
sS'C06723'
p6240
(lp6241
sS'C06726'
p6242
(lp6243
sS'C06727'
p6244
(lp6245
sS'C06728'
p6246
(lp6247
sS'C06729'
p6248
(lp6249
sS'C06336'
p6250
(lp6251
sS'C05527'
p6252
(lp6253
sS'C05526'
p6254
(lp6255
sS'C05524'
p6256
(lp6257
sS'C00942'
p6258
(lp6259
sS'C00940'
p6260
(lp6261
sS'C11910'
p6262
(lp6263
sS'C12176'
p6264
(lp6265
sS'C00944'
p6266
(lp6267
sS'C16401'
p6268
(lp6269
sS'C11681'
p6270
(lp6271
sS'C11680'
p6272
(lp6273
sS'C17139'
p6274
(lp6275
sS'C12642'
p6276
(lp6277
sS'C00433'
p6278
(lp6279
sS'C00430'
p6280
(lp6281
sS'C00431'
p6282
(lp6283
sS'C00436'
p6284
(lp6285
sS'C00437'
p6286
(lp6287
sS'C12644'
p6288
(lp6289
sS'C16324'
p6290
(lp6291
sS'C00438'
p6292
(lp6293
sS'C00439'
p6294
(lp6295
sS'C12318'
p6296
(lp6297
sS'C12319'
p6298
(lp6299
sS'C06126'
p6300
(lp6301
sS'C06655'
p6302
(lp6303
sS'C06656'
p6304
(lp6305
sS'C02059'
p6306
(lp6307
sS'C03442'
p6308
(lp6309
sS'C06651'
p6310
(lp6311
sS'C03440'
p6312
(lp6313
sS'C06121'
p6314
(lp6315
sS'C16239'
p6316
(lp6317
sS'C06658'
p6318
(lp6319
sS'C06659'
p6320
(lp6321
sS'C06129'
p6322
(lp6323
sS'C05417'
p6324
(lp6325
sS'C05416'
p6326
(lp6327
sS'C05414'
p6328
(lp6329
sS'C05413'
p6330
(lp6331
sS'C05418'
p6332
(lp6333
sS'C12621'
p6334
(lp6335
sS'C03840'
p6336
(lp6337
sS'C03846'
p6338
(lp6339
sS'C03847'
p6340
(lp6341
sS'C03844'
p6342
(lp6343
sS'C13626'
p6344
(lp6345
sS'C04381'
p6346
(lp6347
sS'C17328'
p6348
(lp6349
sS'C00388'
p6350
(lp6351
sS'C00389'
p6352
(lp6353
sS'C00385'
p6354
(lp6355
sS'C00386'
p6356
(lp6357
sS'C00387'
p6358
(lp6359
sS'C00380'
p6360
(lp6361
sS'C00381'
p6362
(lp6363
sS'C00383'
p6364
(lp6365
sS'C00890'
p6366
(lp6367
sS'C00891'
p6368
(lp6369
sS'C00892'
p6370
(lp6371
sS'C00897'
p6372
(lp6373
sS'C00546'
p6374
(lp6375
sS'C00547'
p6376
(lp6377
sS'C00544'
p6378
(lp6379
sS'C00545'
p6380
(lp6381
sS'C00542'
p6382
(lp6383
sS'C00543'
p6384
(lp6385
sS'C00540'
p6386
(lp6387
sS'C00541'
p6388
(lp6389
sS'C00366'
p6390
(lp6391
sS'C00364'
p6392
(lp6393
sS'C00365'
p6394
(lp6395
sS'C00362'
p6396
(lp6397
sS'C00363'
p6398
(lp6399
sS'C00360'
p6400
(lp6401
sS'C00361'
p6402
(lp6403
sS'C00369'
p6404
(lp6405
sS'C05702'
p6406
(lp6407
sS'C05701'
p6408
(lp6409
sS'C05700'
p6410
(lp6411
sS'C01638'
p6412
(lp6413
sS'C06876'
p6414
(lp6415
sS'C06615'
p6416
(lp6417
sS'C11062'
p6418
(lp6419
sS'C04652'
p6420
(lp6421
sS'C04656'
p6422
(lp6423
sS'C04657'
p6424
(lp6425
sS'C04655'
p6426
(lp6427
sS'C00099'
p6428
(lp6429
sS'C00090'
p6430
(lp6431
sS'C00091'
p6432
(lp6433
sS'C00092'
p6434
(lp6435
sS'C00093'
p6436
(lp6437
sS'C00094'
p6438
(lp6439
sS'C00095'
p6440
(lp6441
sS'C00096'
p6442
(lp6443
sS'C00097'
p6444
(lp6445
sS'C14099'
p6446
(lp6447
sS'C05729'
p6448
(lp6449
sS'C17210'
p6450
(lp6451
sS'C06752'
p6452
(lp6453
sS'C17216'
p6454
(lp6455
sS'C15545'
p6456
(lp6457
sS'C17214'
p6458
(lp6459
sS'C03205'
p6460
(lp6461
sS'C14091'
p6462
(lp6463
sS'C14090'
p6464
(lp6465
sS'C14093'
p6466
(lp6467
sS'C01469'
p6468
(lp6469
sS'C14095'
p6470
(lp6471
sS'C14094'
p6472
(lp6473
sS'C14097'
p6474
(lp6475
sS'C14096'
p6476
(lp6477
sS'C04730'
p6478
(lp6479
sS'C04733'
p6480
(lp6481
sS'C04732'
p6482
(lp6483
sS'C04735'
p6484
(lp6485
sS'C04737'
p6486
(lp6487
sS'C04736'
p6488
(lp6489
sS'C04738'
p6490
(lp6491
sS'C06756'
p6492
(lp6493
sS'C14119'
p6494
(lp6495
sS'C14769'
p6496
(lp6497
sS'C14768'
p6498
(lp6499
sS'C04729'
p6500
(lp6501
sS'C05679'
p6502
(lp6503
sS'C05677'
p6504
(lp6505
sS'C14762'
p6506
(lp6507
sS'C05675'
p6508
(lp6509
sS'C04637'
p6510
(lp6511
sS'C05673'
p6512
(lp6513
sS'C11410'
p6514
(lp6515
sS'C05670'
p6516
(lp6517
sS'C00164'
p6518
(lp6519
sS'C00165'
p6520
(lp6521
sS'C00166'
p6522
(lp6523
sS'C00167'
p6524
(lp6525
sS'C00160'
p6526
(lp6527
sS'C00161'
p6528
(lp6529
sS'C00162'
p6530
(lp6531
sS'C00163'
p6532
(lp6533
sS'C17138'
p6534
(lp6535
sS'C00168'
p6536
(lp6537
sS'C00169'
p6538
(lp6539
sS'C04248'
p6540
(lp6541
sS'C14785'
p6542
(lp6543
sS'C14787'
p6544
(lp6545
sS'C14786'
p6546
(lp6547
sS'C14781'
p6548
(lp6549
sS'C16375'
p6550
(lp6551
sS'C14789'
p6552
(lp6553
sS'C14788'
p6554
(lp6555
sS'C04405'
p6556
(lp6557
sS'C15581'
p6558
(lp6559
sS'C11150'
p6560
(lp6561
sS'C17322'
p6562
(lp6563
sS'C17326'
p6564
(lp6565
sS'C01382'
p6566
(lp6567
sS'C17324'
p6568
(lp6569
sS'C17325'
p6570
(lp6571
sS'C01387'
p6572
(lp6573
sS'C04247'
p6574
(lp6575
sS'C01384'
p6576
(lp6577
sS'C12643'
p6578
(lp6579
sS'C11827'
p6580
(lp6581
sS'C01419'
p6582
(lp6583
sS'C16270'
p6584
(lp6585
sS'C01149'
p6586
(lp6587
sS'C16221'
p6588
(lp6589
sS'C11826'
p6590
(lp6591
sS'C01412'
p6592
(lp6593
sS'C01147'
p6594
(lp6595
sS'C01146'
p6596
(lp6597
sS'C04421'
p6598
(lp6599
sS'C01416'
p6600
(lp6601
sS'C01143'
p6602
(lp6603
sS'C01142'
p6604
(lp6605
sS'C16274'
p6606
(lp6607
sS'C06403'
p6608
(lp6609
sS'C11989'
p6610
(lp6611
sS'C11821'
p6612
(lp6613
sS'C01998'
p6614
(lp6615
sS'C05268'
p6616
(lp6617
sS'C02549'
p6618
(lp6619
sS'C06423'
p6620
(lp6621
sS'C11985'
p6622
(lp6623
sS'C05264'
p6624
(lp6625
sS'C02545'
p6626
(lp6627
sS'C05266'
p6628
(lp6629
sS'C07838'
p6630
(lp6631
sS'C05260'
p6632
(lp6633
sS'C05262'
p6634
(lp6635
sS'C01702'
p6636
(lp6637
sS'C03373'
p6638
(lp6639
sS'C16716'
p6640
(lp6641
sS'C01709'
p6642
(lp6643
sS'C01708'
p6644
(lp6645
sS'C12673'
p6646
(lp6647
sS'C12173'
p6648
(lp6649
sS'C14450'
p6650
(lp6651
sS'C02759'
p6652
(lp6653
sS'C15966'
p6654
(lp6655
sS'C15967'
p6656
(lp6657
sS'C15965'
p6658
(lp6659
sS'C15968'
p6660
(lp6661
sS'C03701'
p6662
(lp6663
sS'C03703'
p6664
(lp6665
sS'C03706'
p6666
(lp6667
sS'C03708'
p6668
(lp6669
sS'C01563'
p6670
(lp6671
sS'C06056'
p6672
(lp6673
sS'C01561'
p6674
(lp6675
sS'C01066'
p6676
(lp6677
sS'C17141'
p6678
(lp6679
sS'C16497'
p6680
(lp6681
sS'C01569'
p6682
(lp6683
sS'C16494'
p6684
(lp6685
sS'C16493'
p6686
(lp6687
sS'C16492'
p6688
(lp6689
sS'C01367'
p6690
(lp6691
sS'C02499'
p6692
(lp6693
sS'C11411'
p6694
(lp6695
sS'C02492'
p6696
(lp6697
sS'C02141'
p6698
(lp6699
sS'C02142'
p6700
(lp6701
sS'C02143'
p6702
(lp6703
sS'C16222'
p6704
(lp6705
sS'C01368'
p6706
(lp6707
sS'C02494'
p6708
(lp6709
sS'C06399'
p6710
(lp6711
sS'C05841'
p6712
(lp6713
sS'C11529'
p6714
(lp6715
sS'C05847'
p6716
(lp6717
sS'C02816'
p6718
(lp6719
sS'C02817'
p6720
(lp6721
sS'C06393'
p6722
(lp6723
sS'C06503'
p6724
(lp6725
sS'C06395'
p6726
(lp6727
sS'C12449'
p6728
(lp6729
sS'C06397'
p6730
(lp6731
sS'C02811'
p6732
(lp6733
sS'C12128'
p6734
(lp6735
sS'C12474'
p6736
(lp6737
sS'C12123'
p6738
(lp6739
sS'C15541'
p6740
(lp6741
sS'C12126'
p6742
(lp6743
sS'C16149'
p6744
(lp6745
sS'C02727'
p6746
(lp6747
sS'C02720'
p6748
(lp6749
sS'C02721'
p6750
(lp6751
sS'C02722'
p6752
(lp6753
sS'C02723'
p6754
(lp6755
sS'C03634'
p6756
(lp6757
sS'C10700'
p6758
(lp6759
sS'C02266'
p6760
(lp6761
sS'C02728'
p6762
(lp6763
sS'C16144'
p6764
(lp6765
sS'C03145'
p6766
(lp6767
sS'C16146'
p6768
(lp6769
sS'C05284'
p6770
(lp6771
sS'C05280'
p6772
(lp6773
sS'C05281'
p6774
(lp6775
sS'C11962'
p6776
(lp6777
sS'C03470'
p6778
(lp6779
sS'C16495'
p6780
(lp6781
sS'C07648'
p6782
(lp6783
sS'C11963'
p6784
(lp6785
sS'C06481'
p6786
(lp6787
sS'C06482'
p6788
(lp6789
sS'C14899'
p6790
(lp6791
sS'C04750'
p6792
(lp6793
sS'C05565'
p6794
(lp6795
sS'C04454'
p6796
(lp6797
sS'C02923'
p6798
(lp6799
sS'C02920'
p6800
(lp6801
sS'C16001'
p6802
(lp6803
sS'C08543'
p6804
(lp6805
sS'C03037'
p6806
(lp6807
sS'C03035'
p6808
(lp6809
sS'C03033'
p6810
(lp6811
sS'C07029'
p6812
(lp6813
sS'C03030'
p6814
(lp6815
sS'C07024'
p6816
(lp6817
sS'C07025'
p6818
(lp6819
sS'C07026'
p6820
(lp6821
sS'C07027'
p6822
(lp6823
sS'C02031'
p6824
(lp6825
sS'C02034'
p6826
(lp6827
sS'C02035'
p6828
(lp6829
sS'C02038'
p6830
(lp6831
sS'C06000'
p6832
(lp6833
sS'C06002'
p6834
(lp6835
sS'C05337'
p6836
(lp6837
sS'C06006'
p6838
(lp6839
sS'C05447'
p6840
(lp6841
sS'C16728'
p6842
(lp6843
sS'C06738'
p6844
(lp6845
sS'C03690'
p6846
(lp6847
sS'C06733'
p6848
(lp6849
sS'C06731'
p6850
(lp6851
sS'C06730'
p6852
(lp6853
sS'C00951'
p6854
(lp6855
sS'C02140'
p6856
(lp6857
sS'C00955'
p6858
(lp6859
sS'C00954'
p6860
(lp6861
sS'C00957'
p6862
(lp6863
sS'C00956'
p6864
(lp6865
sS'C00958'
p6866
(lp6867
sS'C11478'
p6868
(lp6869
sS'C12650'
p6870
(lp6871
sS'C00423'
p6872
(lp6873
sS'C00422'
p6874
(lp6875
sS'C00424'
p6876
(lp6877
sS'C00427'
p6878
(lp6879
sS'C00426'
p6880
(lp6881
sS'C00429'
p6882
(lp6883
sS'C07281'
p6884
(lp6885
sS'C07282'
p6886
(lp6887
sS'C12308'
p6888
(lp6889
sS'C06751'
p6890
(lp6891
sS'C16315'
p6892
(lp6893
sS'C11477'
p6894
(lp6895
sS'C03455'
p6896
(lp6897
sS'C03454'
p6898
(lp6899
sS'C06641'
p6900
(lp6901
sS'C06136'
p6902
(lp6903
sS'C03451'
p6904
(lp6905
sS'C06130'
p6906
(lp6907
sS'C03453'
p6908
(lp6909
sS'C06644'
p6910
(lp6911
sS'C07731'
p6912
(lp6913
sS'C06649'
p6914
(lp6915
sS'C07733'
p6916
(lp6917
sS'C07734'
p6918
(lp6919
sS'C06138'
p6920
(lp6921
sS'C05463'
p6922
(lp6923
sS'C04549'
p6924
(lp6925
sS'C05466'
p6926
(lp6927
sS'C05464'
p6928
(lp6929
sS'C05465'
p6930
(lp6931
sS'C11418'
p6932
(lp6933
sS'C05469'
p6934
(lp6935
sS'C16633'
p6936
(lp6937
sS'C11783'
p6938
(lp6939
sS'C16217'
p6940
(lp6941
sS'C03852'
p6942
(lp6943
sS'C03855'
p6944
(lp6945
sS'C11272'
p6946
(lp6947
sS'C11857'
p6948
(lp6949
sS'C00399'
p6950
(lp6951
sS'C00398'
p6952
(lp6953
sS'C04399'
p6954
(lp6955
sS'C06753'
p6956
(lp6957
sS'C00392'
p6958
(lp6959
sS'C00391'
p6960
(lp6961
sS'C00390'
p6962
(lp6963
sS'C04392'
p6964
(lp6965
sS'C00395'
p6966
(lp6967
sS'C04390'
p6968
(lp6969
sS'C05848'
p6970
(lp6971
sS'C00559'
p6972
(lp6973
sS'C05849'
p6974
(lp6975
sS'C00555'
p6976
(lp6977
sS'C00886'
p6978
(lp6979
sS'C00557'
p6980
(lp6981
sS'C00884'
p6982
(lp6983
sS'C09822'
p6984
(lp6985
sS'C00550'
p6986
(lp6987
sS'C00881'
p6988
(lp6989
sS'C00552'
p6990
(lp6991
sS'C00375'
p6992
(lp6993
sS'C00377'
p6994
(lp6995
sS'C00376'
p6996
(lp6997
sS'C00371'
p6998
(lp6999
sS'C00370'
p7000
(lp7001
sS'C00372'
p7002
(lp7003
sS'C15514'
p7004
(lp7005
sS'C00379'
p7006
(lp7007
sS'C00378'
p7008
(lp7009
sS'C06868'
p7010
(lp7011
sS'C14851'
p7012
(lp7013
sS'C05313'
p7014
(lp7015
sS'C00087'
p7016
(lp7017
sS'C00086'
p7018
(lp7019
sS'C00085'
p7020
(lp7021
sS'C00084'
p7022
(lp7023
sS'C00083'
p7024
(lp7025
sS'C00082'
p7026
(lp7027
sS'C00081'
p7028
(lp7029
sS'C00080'
p7030
(lp7031
sS'C16630'
p7032
(lp7033
sS'C04640'
p7034
(lp7035
sS'C04642'
p7036
(lp7037
sS'C04645'
p7038
(lp7039
sS'C04644'
p7040
(lp7041
sS'C00089'
p7042
(lp7043
sS'C00088'
p7044
(lp7045
sS'C00779'
p7046
(lp7047
sS'C00778'
p7048
(lp7049
sS'C11878'
p7050
(lp7051
sS'C11879'
p7052
(lp7053
sS'C11874'
p7054
(lp7055
sS'C00770'
p7056
(lp7057
sS'C10783'
p7058
(lp7059
sS'C00774'
p7060
(lp7061
sS'C00777'
p7062
(lp7063
sS'C11873'
p7064
(lp7065
sS'C16229'
p7066
(lp7067
sS'C17203'
p7068
(lp7069
sS'C17202'
p7070
(lp7071
sS'C17205'
p7072
(lp7073
sS'C17204'
p7074
(lp7075
sS'C17207'
p7076
(lp7077
sS'C17206'
p7078
(lp7079
sS'C15557'
p7080
(lp7081
sS'C15556'
p7082
(lp7083
sS'C15555'
p7084
(lp7085
sS'C11523'
p7086
(lp7087
sS'C05232'
p7088
(lp7089
sS'C11897'
p7090
(lp7091
sS'C11894'
p7092
(lp7093
sS'C11895'
p7094
(lp7095
sS'C00900'
p7096
(lp7097
sS'C11890'
p7098
(lp7099
sS'C11891'
p7100
(lp7101
sS'C04706'
p7102
(lp7103
sS'C16201'
p7104
(lp7105
sS'C04702'
p7106
(lp7107
sS'C11899'
p7108
(lp7109
sS'C05608'
p7110
(lp7111
sS'C10434'
p7112
(lp7113
sS'C05600'
p7114
(lp7115
sS'C05601'
p7116
(lp7117
sS'C05607'
p7118
(lp7119
sS'C05604'
p7120
(lp7121
sS'C00173'
p7122
(lp7123
sS'C00170'
p7124
(lp7125
sS'C00177'
p7126
(lp7127
sS'C00175'
p7128
(lp7129
sS'C00174'
p7130
(lp7131
sS'C14151'
p7132
(lp7133
sS'C00179'
p7134
(lp7135
sS'C00178'
p7136
(lp7137
sS'C07888'
p7138
(lp7139
sS'C16391'
p7140
(lp7141
sS'C16661'
p7142
(lp7143
sS'C07347'
p7144
(lp7145
sS'C17235'
p7146
(lp7147
sS'C07271'
p7148
(lp7149
sS'C03148'
p7150
(lp7151
sS'C17339'
p7152
(lp7153
sS'C17335'
p7154
(lp7155
sS'C16664'
p7156
(lp7157
sS'C17336'
p7158
(lp7159
sS'C08539'
p7160
(lp7161
sS'C17333'
p7162
(lp7163
sS'C03638'
p7164
(lp7165
sS'C05116'
p7166
(lp7167
sS'C01179'
p7168
(lp7169
sS'C11482'
p7170
(lp7171
sS'C05110'
p7172
(lp7173
sS'C01170'
p7174
(lp7175
sS'C01171'
p7176
(lp7177
sS'C01172'
p7178
(lp7179
sS'C01175'
p7180
(lp7181
sS'C01176'
p7182
(lp7183
sS'C01177'
p7184
(lp7185
sS'C07277'
p7186
(lp7187
sS'C16426'
p7188
(lp7189
sS'C15523'
p7190
(lp7191
sS'C05691'
p7192
(lp7193
sS'C12410'
p7194
(lp7195
sS'C16145'
p7196
(lp7197
sS'C05693'
p7198
(lp7199
sS'C01282'
p7200
(lp7201
sS'C01283'
p7202
(lp7203
sS'C01281'
p7204
(lp7205
sS'C01286'
p7206
(lp7207
sS'C16147'
p7208
(lp7209
sS'C16556'
p7210
(lp7211
sS'C11809'
p7212
(lp7213
sS'C01288'
p7214
(lp7215
sS'C05270'
p7216
(lp7217
sS'C02557'
p7218
(lp7219
sS'C16553'
p7220
(lp7221
sS'C05274'
p7222
(lp7223
sS'C01772'
p7224
(lp7225
sS'C01770'
p7226
(lp7227
sS'C01777'
p7228
(lp7229
sS'C01775'
p7230
(lp7231
sS'C17023'
p7232
(lp7233
sS'C01779'
p7234
(lp7235
sS'C04895'
p7236
(lp7237
sS'C04896'
p7238
(lp7239
sS'C01847'
p7240
(lp7241
sS'C15973'
p7242
(lp7243
sS'C15972'
p7244
(lp7245
sS'C01510'
p7246
(lp7247
sS'C15976'
p7248
(lp7249
sS'C01912'
p7250
(lp7251
sS'C15978'
p7252
(lp7253
sS'C01910'
p7254
(lp7255
sS'C02315'
p7256
(lp7257
sS'C16220'
p7258
(lp7259
sS'C16638'
p7260
(lp7261
sS'C03737'
p7262
(lp7263
sS'C16702'
p7264
(lp7265
sS'C01598'
p7266
(lp7267
sS'C01594'
p7268
(lp7269
sS'C01595'
p7270
(lp7271
sS'C01592'
p7272
(lp7273
sS'C02488'
p7274
(lp7275
sS'C01352'
p7276
(lp7277
sS'C01353'
p7278
(lp7279
sS'C01355'
p7280
(lp7281
sS'C15527'
p7282
(lp7283
sS'C01609'
p7284
(lp7285
sS'C01606'
p7286
(lp7287
sS'C01359'
p7288
(lp7289
sS'C02483'
p7290
(lp7291
sS'C01602'
p7292
(lp7293
sS'C02486'
p7294
(lp7295
sS'C00510'
p7296
(lp7297
sS'C01825'
p7298
(lp7299
sS'C01822'
p7300
(lp7301
sS'C05859'
p7302
(lp7303
sS'C01821'
p7304
(lp7305
sS'C05856'
p7306
(lp7307
sS'C05855'
p7308
(lp7309
sS'C05853'
p7310
(lp7311
sS'C05852'
p7312
(lp7313
sS'C01829'
p7314
(lp7315
sS'C16423'
p7316
(lp7317
sS'C16170'
p7318
(lp7319
sS'C16172'
p7320
(lp7321
sS'C16173'
p7322
(lp7323
sS'C03748'
p7324
(lp7325
sS'C16179'
p7326
(lp7327
sS'C05239'
p7328
(lp7329
sS'C02732'
p7330
(lp7331
sS'C02730'
p7332
(lp7333
sS'C02737'
p7334
(lp7335
sS'C02735'
p7336
(lp7337
sS'C02734'
p7338
(lp7339
sS'C03600'
p7340
(lp7341
sS'C02739'
p7342
(lp7343
sS'C16223'
p7344
(lp7345
sS'C03607'
p7346
(lp7347
sS'C06259'
p7348
(lp7349
sS'C15525'
p7350
(lp7351
sS'C05291'
p7352
(lp7353
sS'C05290'
p7354
(lp7355
sS'C05293'
p7356
(lp7357
sS'C06250'
p7358
(lp7359
sS'C06251'
p7360
(lp7361
sS'C03889'
p7362
(lp7363
sS'C05299'
p7364
(lp7365
sS'C05298'
p7366
(lp7367
sS'C03190'
p7368
(lp7369
sS'C03193'
p7370
(lp7371
sS'C03194'
p7372
(lp7373
sS'C03195'
p7374
(lp7375
sS'C03196'
p7376
(lp7377
sS'C03197'
p7378
(lp7379
sS'C03198'
p7380
(lp7381
sS'C06526'
p7382
(lp7383
sS'C02939'
p7384
(lp7385
sS'C02938'
p7386
(lp7387
sS'C00750'
p7388
(lp7389
sS'C05271'
p7390
(lp7391
sS'C02930'
p7392
(lp7393
sS'C02933'
p7394
(lp7395
sS'C02932'
p7396
(lp7397
sS'C02934'
p7398
(lp7399
sS'C02937'
p7400
(lp7401
sS'C16014'
p7402
(lp7403
sS'C03042'
p7404
(lp7405
sS'C06035'
p7406
(lp7407
sS'C03516'
p7408
(lp7409
sS'C03517'
p7410
(lp7411
sS'C03046'
p7412
(lp7413
sS'C00755'
p7414
(lp7415
sS'C03044'
p7416
(lp7417
sS'C03045'
p7418
(lp7419
sS'C05932'
p7420
(lp7421
sS'C07031'
p7422
(lp7423
sS'C03049'
p7424
(lp7425
sS'C03284'
p7426
(lp7427
sS'C02029'
p7428
(lp7429
sS'C03283'
p7430
(lp7431
sS'C02027'
p7432
(lp7433
sS'C17237'
p7434
(lp7435
sS'C05590'
p7436
(lp7437
sS'C02020'
p7438
(lp7439
sS'C03999'
p7440
(lp7441
sS'C15930'
p7442
(lp7443
sS'C06749'
p7444
(lp7445
sS'C04099'
p7446
(lp7447
sS'C03990'
p7448
(lp7449
sS'C03458'
p7450
(lp7451
sS'C06741'
p7452
(lp7453
sS'C04090'
p7454
(lp7455
sS'C04091'
p7456
(lp7457
sS'C05577'
p7458
(lp7459
sS'C04093'
p7460
(lp7461
sS'C07296'
p7462
(lp7463
sS'C07295'
p7464
(lp7465
sS'C07294'
p7466
(lp7467
sS'C16303'
p7468
(lp7469
sS'C07292'
p7470
(lp7471
sS'C04258'
p7472
(lp7473
sS'C04259'
p7474
(lp7475
sS'C00964'
p7476
(lp7477
sS'C00965'
p7478
(lp7479
sS'C00966'
p7480
(lp7481
sS'C04253'
p7482
(lp7483
sS'C04250'
p7484
(lp7485
sS'C07727'
p7486
(lp7487
sS'C07726'
p7488
(lp7489
sS'C07725'
p7490
(lp7491
sS'C07724'
p7492
(lp7493
sS'C00418'
p7494
(lp7495
sS'C07722'
p7496
(lp7497
sS'C07721'
p7498
(lp7499
sS'C00414'
p7500
(lp7501
sS'C00415'
p7502
(lp7503
sS'C00416'
p7504
(lp7505
sS'C00417'
p7506
(lp7507
sS'C00410'
p7508
(lp7509
sS'C00411'
p7510
(lp7511
sS'C00412'
p7512
(lp7513
sS'C00413'
p7514
(lp7515
sS'C03460'
p7516
(lp7517
sS'C06102'
p7518
(lp7519
sS'C03463'
p7520
(lp7521
sS'C06104'
p7522
(lp7523
sS'C12468'
p7524
(lp7525
sS'C12469'
p7526
(lp7527
sS'C12466'
p7528
(lp7529
sS'C06109'
p7530
(lp7531
sS'C09824'
p7532
(lp7533
sS'C12465'
p7534
(lp7535
sS'C12462'
p7536
(lp7537
sS'C12463'
p7538
(lp7539
sS'C12460'
p7540
(lp7541
sS'C12461'
p7542
(lp7543
sS'C05471'
p7544
(lp7545
sS'C03865'
p7546
(lp7547
sS'C05473'
p7548
(lp7549
sS'C05472'
p7550
(lp7551
sS'C05475'
p7552
(lp7553
sS'C05474'
p7554
(lp7555
sS'C03862'
p7556
(lp7557
sS'C05476'
p7558
(lp7559
sS'C05479'
p7560
(lp7561
sS'C05478'
p7562
(lp7563
sS'C16292'
p7564
(lp7565
sS'C03868'
p7566
(lp7567
sS'C07501'
p7568
(lp7569
sS'C16645'
p7570
(lp7571
sS'C07028'
p7572
(lp7573
sS'C04520'
p7574
(lp7575
sS'C01029'
p7576
(lp7577
sS'C14844'
p7578
(lp7579
sS'C07478'
p7580
(lp7581
sS'C14843'
p7582
(lp7583
sS'C14840'
p7584
(lp7585
sS'C11636'
p7586
(lp7587
sS'C14849'
p7588
(lp7589
sS'C00568'
p7590
(lp7591
sS'C12208'
p7592
(lp7593
sS'C00561'
p7594
(lp7595
sS'C00562'
p7596
(lp7597
sS'C07349'
p7598
(lp7599
sS'C00565'
p7600
(lp7601
sS'C00566'
p7602
(lp7603
sS'C05247'
p7604
(lp7605
sS'C00340'
p7606
(lp7607
sS'C00341'
p7608
(lp7609
sS'C00342'
p7610
(lp7611
sS'C00343'
p7612
(lp7613
sS'C00344'
p7614
(lp7615
sS'C00345'
p7616
(lp7617
sS'C00346'
p7618
(lp7619
sS'C00347'
p7620
(lp7621
sS'C00349'
p7622
(lp7623
sS'C16429'
p7624
(lp7625
sS'C17229'
p7626
(lp7627
sS'C04674'
p7628
(lp7629
sS'C04675'
p7630
(lp7631
sS'C04676'
p7632
(lp7633
sS'C04677'
p7634
(lp7635
sS'C04671'
p7636
(lp7637
sS'C04672'
p7638
(lp7639
sS'C16427'
p7640
(lp7641
sS'C04076'
p7642
(lp7643
sS'C00745'
p7644
(lp7645
sS'C16846'
p7646
(lp7647
sS'C04075'
p7648
(lp7649
sS'C00740'
p7650
(lp7651
sS'C11088'
p7652
(lp7653
sS'C04071'
p7654
(lp7655
sS'C16422'
p7656
(lp7657
sS'C00748'
p7658
(lp7659
sS'C04079'
p7660
(lp7661
sS'C00986'
p7662
(lp7663
sS'C11868'
p7664
(lp7665
sS'C00982'
p7666
(lp7667
sS'C00980'
p7668
(lp7669
sS'C17222'
p7670
(lp7671
sS'C11863'
p7672
(lp7673
sS'C11862'
p7674
(lp7675
sS'C11861'
p7676
(lp7677
sS'C11860'
p7678
(lp7679
sS'C11643'
p7680
(lp7681
sS'C11642'
p7682
(lp7683
sS'C00988'
p7684
(lp7685
sS'C00989'
p7686
(lp7687
sS'C15528'
p7688
(lp7689
sS'C17220'
p7690
(lp7691
sS'C17238'
p7692
(lp7693
sS'C16312'
p7694
(lp7695
sS'C15522'
p7696
(lp7697
sS'C12477'
p7698
(lp7699
sS'C15520'
p7700
(lp7701
sS'C03687'
p7702
(lp7703
sS'C14152'
p7704
(lp7705
sS'C01640'
p7706
(lp7707
sS'C15524'
p7708
(lp7709
sS'C12003'
p7710
(lp7711
sS'C00961'
p7712
(lp7713
sS'C06001'
p7714
(lp7715
sS'C11887'
p7716
(lp7717
sS'C04718'
p7718
(lp7719
sS'C11880'
p7720
(lp7721
sS'C11883'
p7722
(lp7723
sS'C11882'
p7724
(lp7725
sS'C04713'
p7726
(lp7727
sS'C04712'
p7728
(lp7729
sS'C06414'
p7730
(lp7731
sS'C04715'
p7732
(lp7733
sS'C05619'
p7734
(lp7735
sS'C05618'
p7736
(lp7737
sS'C14145'
p7738
(lp7739
sS'C14144'
p7740
(lp7741
sS'C14143'
p7742
(lp7743
sS'C01644'
p7744
(lp7745
sS'C08830'
p7746
(lp7747
sS'C12476'
p7748
(lp7749
sS'C05610'
p7750
(lp7751
sS'C14149'
p7752
(lp7753
sS'C05616'
p7754
(lp7755
sS'C04525'
p7756
(lp7757
sS'C06007'
p7758
(lp7759
sS'C00188'
p7760
(lp7761
sS'C02444'
p7762
(lp7763
sS'C00186'
p7764
(lp7765
sS'C00187'
p7766
(lp7767
sS'C00184'
p7768
(lp7769
sS'C00185'
p7770
(lp7771
sS'C00183'
p7772
(lp7773
sS'C00180'
p7774
(lp7775
sS'C00181'
p7776
(lp7777
sS'C02110'
p7778
(lp7779
sS'C06744'
p7780
(lp7781
sS'C01319'
p7782
(lp7783
sS'C01167'
p7784
(lp7785
sS'C01165'
p7786
(lp7787
sS'C01164'
p7788
(lp7789
sS'C01161'
p7790
(lp7791
sS'C05322'
p7792
(lp7793
sS'C04409'
p7794
(lp7795
sS'C05107'
p7796
(lp7797
sS'C05100'
p7798
(lp7799
sS'C05103'
p7800
(lp7801
sS'C05109'
p7802
(lp7803
sS'C05108'
p7804
(lp7805
sS'C13637'
p7806
(lp7807
sS'C16219'
p7808
(lp7809
sS'C14453'
p7810
(lp7811
sS'C01290'
p7812
(lp7813
sS'C01293'
p7814
(lp7815
sS'C15037'
p7816
(lp7817
sS'C17010'
p7818
(lp7819
sS'C01294'
p7820
(lp7821
sS'C01297'
p7822
(lp7823
sS'C01724'
p7824
(lp7825
sS'C01299'
p7826
(lp7827
sS'C01298'
p7828
(lp7829
sS'C16546'
p7830
(lp7831
sS'C17018'
p7832
(lp7833
sS'C16540'
p7834
(lp7835
sS'C16543'
p7836
(lp7837
sS'C12472'
p7838
(lp7839
sS'C01761'
p7840
(lp7841
sS'C01760'
p7842
(lp7843
sS'C01762'
p7844
(lp7845
sS'C01765'
p7846
(lp7847
sS'C01764'
p7848
(lp7849
sS'C01767'
p7850
(lp7851
sS'C01766'
p7852
(lp7853
sS'C01768'
p7854
(lp7855
sS'C05923'
p7856
(lp7857
sS'C01720'
p7858
(lp7859
sS'C04882'
p7860
(lp7861
sS'C04880'
p7862
(lp7863
sS'C14114'
p7864
(lp7865
sS'C04885'
p7866
(lp7867
sS'C04884'
p7868
(lp7869
sS'C01722'
p7870
(lp7871
sS'C01909'
p7872
(lp7873
sS'C01902'
p7874
(lp7875
sS'C15940'
p7876
(lp7877
sS'C01904'
p7878
(lp7879
sS'C01907'
p7880
(lp7881
sS'C01906'
p7882
(lp7883
sS'C03722'
p7884
(lp7885
sS'C14859'
p7886
(lp7887
sS'C03726'
p7888
(lp7889
sS'C03725'
p7890
(lp7891
sS'C02123'
p7892
(lp7893
sS'C01589'
p7894
(lp7895
sS'C02124'
p7896
(lp7897
sS'C00055'
p7898
(lp7899
sS'C01756'
p7900
(lp7901
sS'C02128'
p7902
(lp7903
sS'C01586'
p7904
(lp7905
sS'C01346'
p7906
(lp7907
sS'C01617'
p7908
(lp7909
sS'C01616'
p7910
(lp7911
sS'C01343'
p7912
(lp7913
sS'C01613'
p7914
(lp7915
sS'C01612'
p7916
(lp7917
sS'C06626'
p7918
(lp7919
sS'C05908'
p7920
(lp7921
sS'C01832'
p7922
(lp7923
sS'C05822'
p7924
(lp7925
sS'C05823'
p7926
(lp7927
sS'C00721'
p7928
(lp7929
sS'C01839'
p7930
(lp7931
sS'C01838'
p7932
(lp7933
sS'C16850'
p7934
(lp7935
sS'C02837'
p7936
(lp7937
sS'C16162'
p7938
(lp7939
sS'C03614'
p7940
(lp7941
sS'C16166'
p7942
(lp7943
sS'C00950'
p7944
(lp7945
sS'C00194'
p7946
(lp7947
sS'C16169'
p7948
(lp7949
sS'C16168'
p7950
(lp7951
sS'C03618'
p7952
(lp7953
sS'C06246'
p7954
(lp7955
sS'C15898'
p7956
(lp7957
sS'C06244'
p7958
(lp7959
sS'C06241'
p7960
(lp7961
sS'C15892'
p7962
(lp7963
sS'C02218'
p7964
(lp7965
sS'C09849'
p7966
(lp7967
sS'C16631'
p7968
(lp7969
sS'C06249'
p7970
(lp7971
sS'C02583'
p7972
(lp7973
sS'C05918'
p7974
(lp7975
sS'C02587'
p7976
(lp7977
sS'C02236'
p7978
(lp7979
sS'C02589'
p7980
(lp7981
sS'C05914'
p7982
(lp7983
sS'C02235'
p7984
(lp7985
sS'C05913'
p7986
(lp7987
sS'C05911'
p7988
(lp7989
sS'C02905'
p7990
(lp7991
sS'C02906'
p7992
(lp7993
sS'C05922'
p7994
(lp7995
sS'C02900'
p7996
(lp7997
sS'C16635'
p7998
(lp7999
sS'C03189'
p8000
(lp8001
sS'C03187'
p8002
(lp8003
sS'C16314'
p8004
(lp8005
sS'C03185'
p8006
(lp8007
sS'C00500'
p8008
(lp8009
sS'C12421'
p8010
(lp8011
sS'C16216'
p8012
(lp8013
sS'C06023'
p8014
(lp8015
sS'C06135'
p8016
(lp8017
sS'C06021'
p8018
(lp8019
sS'C15903'
p8020
(lp8021
sS'C06027'
p8022
(lp8023
sS'C03506'
p8024
(lp8025
sS'C03057'
p8026
(lp8027
sS'C03056'
p8028
(lp8029
sS'C16304'
p8030
(lp8031
sS'C03290'
p8032
(lp8033
sS'C15925'
p8034
(lp8035
sS'C03296'
p8036
(lp8037
sS'C08583'
p8038
(lp8039
sS'C06131'
p8040
(lp8041
sS'C02050'
p8042
(lp8043
sS'C02051'
p8044
(lp8045
sS'C02056'
p8046
(lp8047
sS'C06646'
p8048
(lp8049
sS'C06758'
p8050
(lp8051
sS'C04089'
p8052
(lp8053
sS'C04088'
p8054
(lp8055
sS'C06133'
p8056
(lp8057
sS'C04083'
p8058
(lp8059
sS'C04081'
p8060
(lp8061
sS'C04080'
p8062
(lp8063
sS'C06755'
p8064
(lp8065
sS'C06754'
p8066
(lp8067
sS'C06757'
p8068
(lp8069
sS'C04084'
p8070
(lp8071
sS'C11412'
p8072
(lp8073
sS'C11413'
p8074
(lp8075
sS'C00979'
p8076
(lp8077
sS'C00978'
p8078
(lp8079
sS'C11416'
p8080
(lp8081
sS'C11417'
p8082
(lp8083
sS'C11414'
p8084
(lp8085
sS'C11415'
p8086
(lp8087
sS'C00973'
p8088
(lp8089
sS'C04244'
p8090
(lp8091
sS'C00971'
p8092
(lp8093
sS'C11419'
p8094
(lp8095
sS'C00977'
p8096
(lp8097
sS'C00976'
p8098
(lp8099
sS'C00975'
p8100
(lp8101
sS'C00974'
p8102
(lp8103
sS'C00409'
p8104
(lp8105
sS'C00408'
p8106
(lp8107
sS'C16712'
p8108
(lp8109
sS'C00403'
p8110
(lp8111
sS'C00402'
p8112
(lp8113
sS'C00401'
p8114
(lp8115
sS'C00400'
p8116
(lp8117
sS'C00407'
p8118
(lp8119
sS'C00406'
p8120
(lp8121
sS'C00405'
p8122
(lp8123
sS'C00404'
p8124
(lp8125
sS'C04578'
p8126
(lp8127
sS'C12479'
p8128
(lp8129
sS'C12478'
p8130
(lp8131
sS'C03479'
p8132
(lp8133
sS'C06118'
p8134
(lp8135
sS'C12475'
p8136
(lp8137
sS'C03476'
p8138
(lp8139
sS'C03475'
p8140
(lp8141
sS'C03474'
p8142
(lp8143
sS'C12471'
p8144
(lp8145
sS'C12470'
p8146
(lp8147
sS'C12473'
p8148
(lp8149
sS'C04477'
p8150
(lp8151
sS'C03872'
p8152
(lp8153
sS'C03871'
p8154
(lp8155
sS'C16731'
p8156
(lp8157
sS'C05448'
p8158
(lp8159
sS'C03875'
p8160
(lp8161
sS'C05444'
p8162
(lp8163
sS'C05445'
p8164
(lp8165
sS'C05446'
p8166
(lp8167
sS'C04475'
p8168
(lp8169
sS'C04573'
p8170
(lp8171
sS'C16735'
p8172
(lp8173
sS'C01118'
p8174
(lp8175
sS'C00577'
p8176
(lp8177
sS'C00576'
p8178
(lp8179
sS'C00575'
p8180
(lp8181
sS'C00726'
p8182
(lp8183
sS'C00573'
p8184
(lp8185
sS'C14850'
p8186
(lp8187
sS'C00571'
p8188
(lp8189
sS'C00570'
p8190
(lp8191
sS'C11526'
p8192
(lp8193
sS'C11524'
p8194
(lp8195
sS'C16205'
p8196
(lp8197
sS'C11522'
p8198
(lp8199
sS'C14858'
p8200
(lp8201
sS'C00579'
p8202
(lp8203
sS'C11521'
p8204
(lp8205
sS'C03985'
p8206
(lp8207
sS'C08537'
p8208
(lp8209
sS'C03981'
p8210
(lp8211
sS'C12211'
p8212
(lp8213
sS'C12210'
p8214
(lp8215
sS'C12213'
p8216
(lp8217
sS'C04574'
p8218
(lp8219
sS'C12215'
p8220
(lp8221
sS'C12214'
p8222
(lp8223
sS'C00357'
p8224
(lp8225
sS'C00356'
p8226
(lp8227
sS'C00355'
p8228
(lp8229
sS'C00354'
p8230
(lp8231
sS'C00353'
p8232
(lp8233
sS'C00352'
p8234
(lp8235
sS'C00350'
p8236
(lp8237
sS'C04661'
p8238
(lp8239
sS'C04666'
p8240
(lp8241
sS'C01540'
p8242
(lp8243
sS'C09244'
p8244
(lp8245
sS'C14722'
p8246
(lp8247
sS'C00751'
p8248
(lp8249
sS'C02165'
p8250
(lp8251
sS'C00756'
p8252
(lp8253
sS'C04063'
p8254
(lp8255
sS'C04062'
p8256
(lp8257
sS'C05593'
p8258
(lp8259
sS'C00759'
p8260
(lp8261
sS'C00758'
p8262
(lp8263
sS'C13309'
p8264
(lp8265
sS'C00995'
p8266
(lp8267
sS'C09707'
p8268
(lp8269
sS'C00997'
p8270
(lp8271
sS'C00996'
p8272
(lp8273
sS'C00991'
p8274
(lp8275
sS'C00990'
p8276
(lp8277
sS'C00993'
p8278
(lp8279
sS'C00992'
p8280
(lp8281
sS'C11632'
p8282
(lp8283
sS'C11633'
p8284
(lp8285
sS'C11630'
p8286
(lp8287
sS'C00999'
p8288
(lp8289
sS'C11637'
p8290
(lp8291
sS'C11635'
p8292
(lp8293
sS'C15539'
p8294
(lp8295
sS'C15538'
p8296
(lp8297
sS'C11979'
p8298
(lp8299
sS'C04800'
p8300
(lp8301
sS'C17223'
p8302
(lp8303
sS'C04771'
p8304
(lp8305
sS'C17221'
p8306
(lp8307
sS'C16723'
p8308
(lp8309
sS'C17227'
p8310
(lp8311
sS'C15534'
p8312
(lp8313
sS'C17225'
p8314
(lp8315
sS'C17224'
p8316
(lp8317
sS'C03918'
p8318
(lp8319
sS'C05623'
p8320
(lp8321
sS'C05629'
p8322
(lp8323
sS'C08825'
p8324
(lp8325
sS'C08821'
p8326
(lp8327
sS'C02380'
p8328
(lp8329
sS'C09821'
p8330
(lp8331
sS'C16327'
p8332
(lp8333
sS'C00199'
p8334
(lp8335
sS'C00198'
p8336
(lp8337
sS'C12464'
p8338
(lp8339
sS'C00195'
p8340
(lp8341
sS'C00723'
p8342
(lp8343
sS'C00197'
p8344
(lp8345
sS'C00196'
p8346
(lp8347
sS'C00191'
p8348
(lp8349
sS'C00190'
p8350
(lp8351
sS'C00193'
p8352
(lp8353
sS'C00192'
p8354
(lp8355
sS'C01112'
p8356
(lp8357
sS'C01113'
p8358
(lp8359
sS'C01110'
p8360
(lp8361
sS'C01111'
p8362
(lp8363
sS'C04476'
p8364
(lp8365
sS'C01117'
p8366
(lp8367
sS'C01114'
p8368
(lp8369
sS'C01115'
p8370
(lp8371
sS'C04478'
p8372
(lp8373
sS'C01119'
p8374
(lp8375
sS'C05130'
p8376
(lp8377
sS'C10157'
p8378
(lp8379
sS'C05138'
p8380
(lp8381
sS'C16321'
p8382
(lp8383
sS'C09844'
p8384
(lp8385
sS'C14040'
p8386
(lp8387
ssS'node_neighbors'
p8388
(dp8389
g8
(lp8390
sg10
(lp8391
sg12
(lp8392
sg14
(lp8393
sg16
(lp8394
sg18
(lp8395
sg20
(lp8396
sg22
(lp8397
sg24
(lp8398
sg26
(lp8399
sg28
(lp8400
sg30
(lp8401
sg32
(lp8402
sg34
(lp8403
sg36
(lp8404
sg38
(lp8405
sg40
(lp8406
sg42
(lp8407
sg44
(lp8408
sg46
(lp8409
sg48
(lp8410
sg50
(lp8411
sg52
(lp8412
sg54
(lp8413
sg56
(lp8414
sg58
(lp8415
sg60
(lp8416
sg62
(lp8417
sg64
(lp8418
sg66
(lp8419
sg68
(lp8420
sg70
(lp8421
sg72
(lp8422
sg74
(lp8423
sg76
(lp8424
sg78
(lp8425
sg80
(lp8426
sg82
(lp8427
sg84
(lp8428
sg86
(lp8429
sg88
(lp8430
sg90
(lp8431
sg92
(lp8432
sg94
(lp8433
sg96
(lp8434
sg98
(lp8435
sg100
(lp8436
sg102
(lp8437
sg104
(lp8438
sg106
(lp8439
sg108
(lp8440
sg110
(lp8441
sg112
(lp8442
sg114
(lp8443
sg116
(lp8444
sg118
(lp8445
sg120
(lp8446
sg122
(lp8447
sg124
(lp8448
sg126
(lp8449
sg128
(lp8450
sg130
(lp8451
sg132
(lp8452
sg134
(lp8453
sg136
(lp8454
sg138
(lp8455
sg140
(lp8456
sg142
(lp8457
sg144
(lp8458
sg146
(lp8459
sg148
(lp8460
sg150
(lp8461
sg152
(lp8462
sg154
(lp8463
sg156
(lp8464
sg158
(lp8465
sg160
(lp8466
sg162
(lp8467
sg164
(lp8468
sg166
(lp8469
sg168
(lp8470
sg170
(lp8471
sg172
(lp8472
sg174
(lp8473
sg176
(lp8474
sg178
(lp8475
sg180
(lp8476
sg182
(lp8477
sg184
(lp8478
sg186
(lp8479
sg188
(lp8480
sg190
(lp8481
sg192
(lp8482
sg194
(lp8483
sg196
(lp8484
sg198
(lp8485
sg200
(lp8486
sg202
(lp8487
sg204
(lp8488
sg206
(lp8489
sg208
(lp8490
sg210
(lp8491
sg212
(lp8492
sg214
(lp8493
sg216
(lp8494
sg218
(lp8495
sg220
(lp8496
sg222
(lp8497
sg224
(lp8498
sg226
(lp8499
sg228
(lp8500
sg230
(lp8501
sg232
(lp8502
sg234
(lp8503
sg236
(lp8504
sg238
(lp8505
sg240
(lp8506
sg242
(lp8507
sg244
(lp8508
sg246
(lp8509
sg248
(lp8510
sg250
(lp8511
sg252
(lp8512
sg254
(lp8513
sg256
(lp8514
sg258
(lp8515
sg260
(lp8516
sg262
(lp8517
sg264
(lp8518
sg266
(lp8519
sg268
(lp8520
sg270
(lp8521
sg272
(lp8522
sg274
(lp8523
sg276
(lp8524
sg278
(lp8525
sg280
(lp8526
sg282
(lp8527
sg284
(lp8528
sg286
(lp8529
sg288
(lp8530
sg290
(lp8531
sg292
(lp8532
sg294
(lp8533
sg296
(lp8534
sg298
(lp8535
sg300
(lp8536
sg302
(lp8537
sg304
(lp8538
sg306
(lp8539
sg308
(lp8540
sg310
(lp8541
sg312
(lp8542
sg314
(lp8543
sg316
(lp8544
sg318
(lp8545
sg320
(lp8546
sg322
(lp8547
sg324
(lp8548
sg326
(lp8549
sg328
(lp8550
sg330
(lp8551
sg332
(lp8552
sg334
(lp8553
sg336
(lp8554
sg338
(lp8555
sg340
(lp8556
sg342
(lp8557
sg344
(lp8558
sg346
(lp8559
sg348
(lp8560
sg350
(lp8561
sg352
(lp8562
sg354
(lp8563
sg356
(lp8564
sg358
(lp8565
sg360
(lp8566
sg362
(lp8567
sg364
(lp8568
sg366
(lp8569
sg368
(lp8570
sg370
(lp8571
sg372
(lp8572
sg374
(lp8573
sg376
(lp8574
sg378
(lp8575
sg380
(lp8576
sg382
(lp8577
sg384
(lp8578
sg386
(lp8579
sg388
(lp8580
sg390
(lp8581
sg392
(lp8582
sg394
(lp8583
sg396
(lp8584
sg398
(lp8585
sg400
(lp8586
sg402
(lp8587
sg404
(lp8588
sg406
(lp8589
sg408
(lp8590
sg410
(lp8591
sg412
(lp8592
sg414
(lp8593
sg416
(lp8594
sg418
(lp8595
sg420
(lp8596
sg422
(lp8597
sg424
(lp8598
sg426
(lp8599
sg428
(lp8600
sg430
(lp8601
sg432
(lp8602
sg434
(lp8603
sg436
(lp8604
sg438
(lp8605
sg440
(lp8606
sg442
(lp8607
sg444
(lp8608
sg446
(lp8609
sg448
(lp8610
sg450
(lp8611
sg452
(lp8612
sg454
(lp8613
sg456
(lp8614
sg458
(lp8615
sg460
(lp8616
sg462
(lp8617
sg464
(lp8618
sg466
(lp8619
sg468
(lp8620
sg470
(lp8621
sg472
(lp8622
sg474
(lp8623
sg476
(lp8624
sg478
(lp8625
sg480
(lp8626
sg482
(lp8627
sg484
(lp8628
sg486
(lp8629
sg488
(lp8630
sg490
(lp8631
sg492
(lp8632
sg494
(lp8633
sg496
(lp8634
sg498
(lp8635
sg500
(lp8636
sg502
(lp8637
sg504
(lp8638
sg506
(lp8639
sg508
(lp8640
sg510
(lp8641
sg512
(lp8642
sg514
(lp8643
sg516
(lp8644
sg518
(lp8645
sg520
(lp8646
sg522
(lp8647
sg524
(lp8648
sg526
(lp8649
sg528
(lp8650
sg530
(lp8651
sg532
(lp8652
sg534
(lp8653
sg536
(lp8654
sg538
(lp8655
sg540
(lp8656
sg542
(lp8657
sg544
(lp8658
sg546
(lp8659
sg548
(lp8660
sg550
(lp8661
sg552
(lp8662
sg554
(lp8663
sg556
(lp8664
sg558
(lp8665
sg560
(lp8666
sg562
(lp8667
sg564
(lp8668
sg566
(lp8669
sg568
(lp8670
sg570
(lp8671
sg572
(lp8672
sg574
(lp8673
sg576
(lp8674
sg578
(lp8675
sg580
(lp8676
sg582
(lp8677
sg584
(lp8678
sg586
(lp8679
sg588
(lp8680
sg590
(lp8681
sg592
(lp8682
sg594
(lp8683
sg596
(lp8684
sg598
(lp8685
sg600
(lp8686
sg602
(lp8687
sg604
(lp8688
sg606
(lp8689
sg608
(lp8690
sg610
(lp8691
sg612
(lp8692
sg614
(lp8693
sg616
(lp8694
sg618
(lp8695
sg620
(lp8696
sg622
(lp8697
sg624
(lp8698
sg626
(lp8699
sg628
(lp8700
sg630
(lp8701
sg632
(lp8702
sg634
(lp8703
sg636
(lp8704
sg638
(lp8705
sg640
(lp8706
sg642
(lp8707
sg644
(lp8708
sg646
(lp8709
sg648
(lp8710
sg650
(lp8711
sg652
(lp8712
sg654
(lp8713
sg656
(lp8714
sg658
(lp8715
sg660
(lp8716
sg662
(lp8717
sg664
(lp8718
sg666
(lp8719
sg668
(lp8720
sg670
(lp8721
sg672
(lp8722
sg674
(lp8723
sg676
(lp8724
sg678
(lp8725
sg680
(lp8726
sg682
(lp8727
sg684
(lp8728
sg686
(lp8729
sg688
(lp8730
sg690
(lp8731
sg692
(lp8732
sg694
(lp8733
sg696
(lp8734
sg698
(lp8735
sg700
(lp8736
sg702
(lp8737
sg704
(lp8738
sg706
(lp8739
sg708
(lp8740
sg710
(lp8741
sg712
(lp8742
sg714
(lp8743
sg716
(lp8744
sg718
(lp8745
sg720
(lp8746
sg722
(lp8747
sg724
(lp8748
sg726
(lp8749
sg728
(lp8750
sg730
(lp8751
sg732
(lp8752
sg734
(lp8753
sg736
(lp8754
sg738
(lp8755
sg740
(lp8756
sg742
(lp8757
sg744
(lp8758
sg746
(lp8759
sg748
(lp8760
sg750
(lp8761
sg752
(lp8762
sg754
(lp8763
sg756
(lp8764
sg758
(lp8765
sg760
(lp8766
sg762
(lp8767
sg764
(lp8768
sg766
(lp8769
sg768
(lp8770
sg770
(lp8771
sg772
(lp8772
sg774
(lp8773
sg776
(lp8774
sg778
(lp8775
sg780
(lp8776
sg782
(lp8777
sg784
(lp8778
sg786
(lp8779
sg788
(lp8780
sg790
(lp8781
sg792
(lp8782
sg794
(lp8783
sg796
(lp8784
sg798
(lp8785
sg800
(lp8786
sg802
(lp8787
sg804
(lp8788
sg806
(lp8789
sg808
(lp8790
sg810
(lp8791
sg812
(lp8792
sg814
(lp8793
sg816
(lp8794
sg818
(lp8795
sg820
(lp8796
sg822
(lp8797
sg824
(lp8798
sg826
(lp8799
sg828
(lp8800
sg830
(lp8801
sg832
(lp8802
sg834
(lp8803
sg836
(lp8804
sg838
(lp8805
sg840
(lp8806
sg842
(lp8807
sg844
(lp8808
sg846
(lp8809
sg848
(lp8810
sg850
(lp8811
sg852
(lp8812
sg854
(lp8813
sg856
(lp8814
sg858
(lp8815
sg860
(lp8816
sg862
(lp8817
sg864
(lp8818
sg866
(lp8819
sg868
(lp8820
sg870
(lp8821
sg872
(lp8822
sg874
(lp8823
sg876
(lp8824
sg878
(lp8825
sg880
(lp8826
sg882
(lp8827
sg884
(lp8828
sg886
(lp8829
sg888
(lp8830
sg890
(lp8831
sg892
(lp8832
sg894
(lp8833
sg896
(lp8834
sg898
(lp8835
sg900
(lp8836
sg902
(lp8837
sg904
(lp8838
sg906
(lp8839
sg908
(lp8840
sg910
(lp8841
sg912
(lp8842
sg914
(lp8843
sg916
(lp8844
sg918
(lp8845
sg920
(lp8846
sg922
(lp8847
sg924
(lp8848
sg926
(lp8849
sg928
(lp8850
sg930
(lp8851
sg932
(lp8852
sg934
(lp8853
sg936
(lp8854
sg938
(lp8855
sg940
(lp8856
sg942
(lp8857
sg944
(lp8858
sg946
(lp8859
sg948
(lp8860
sg950
(lp8861
sg952
(lp8862
sg954
(lp8863
sg956
(lp8864
sg958
(lp8865
sg960
(lp8866
sg962
(lp8867
sg964
(lp8868
sg966
(lp8869
sg968
(lp8870
sg970
(lp8871
sg972
(lp8872
sg974
(lp8873
sg976
(lp8874
sg978
(lp8875
sg980
(lp8876
sg982
(lp8877
sg984
(lp8878
sg986
(lp8879
sg988
(lp8880
sg990
(lp8881
sg992
(lp8882
sg994
(lp8883
sg996
(lp8884
sg998
(lp8885
sg1000
(lp8886
sg1002
(lp8887
sg1004
(lp8888
sg1006
(lp8889
sg1008
(lp8890
sg1010
(lp8891
sg1012
(lp8892
sg1014
(lp8893
sg1016
(lp8894
sg1018
(lp8895
sg1020
(lp8896
sg1022
(lp8897
sg1024
(lp8898
sg1026
(lp8899
sg1028
(lp8900
sg1030
(lp8901
sg1032
(lp8902
sg1034
(lp8903
sg1036
(lp8904
sg1038
(lp8905
sg1040
(lp8906
sg1042
(lp8907
sg1044
(lp8908
sg1046
(lp8909
sg1048
(lp8910
sg1050
(lp8911
sg1052
(lp8912
sg1054
(lp8913
sg1056
(lp8914
sg1058
(lp8915
sg1060
(lp8916
sg1062
(lp8917
sg1064
(lp8918
sg1066
(lp8919
sg1068
(lp8920
sg1070
(lp8921
sg1072
(lp8922
sg1074
(lp8923
sg1076
(lp8924
sg1078
(lp8925
sg1080
(lp8926
sg1082
(lp8927
sg1084
(lp8928
sg1086
(lp8929
sg1088
(lp8930
sg1090
(lp8931
sg1092
(lp8932
sg1094
(lp8933
sg1096
(lp8934
sg1098
(lp8935
sg1100
(lp8936
sg1102
(lp8937
sg1104
(lp8938
sg1106
(lp8939
sg1108
(lp8940
sg1110
(lp8941
sg1112
(lp8942
sg1114
(lp8943
sg1116
(lp8944
sg1118
(lp8945
sg1120
(lp8946
sg1122
(lp8947
sg1124
(lp8948
sg1126
(lp8949
sg1128
(lp8950
sg1130
(lp8951
sg1132
(lp8952
sg1134
(lp8953
sg1136
(lp8954
sg1138
(lp8955
sg1140
(lp8956
sg1142
(lp8957
sg1144
(lp8958
sg1146
(lp8959
sg1148
(lp8960
sg1150
(lp8961
sg1152
(lp8962
sg1154
(lp8963
sg1156
(lp8964
sg1158
(lp8965
sg1160
(lp8966
sg1162
(lp8967
sg1164
(lp8968
sg1166
(lp8969
sg1168
(lp8970
sg1170
(lp8971
sg1172
(lp8972
sg1174
(lp8973
sg1176
(lp8974
sg1178
(lp8975
sg1180
(lp8976
sg1182
(lp8977
sg1184
(lp8978
sg1186
(lp8979
sg1188
(lp8980
sg1190
(lp8981
sg1192
(lp8982
sg1194
(lp8983
sg1196
(lp8984
sg1198
(lp8985
sg1200
(lp8986
sg1202
(lp8987
sg1204
(lp8988
sg1206
(lp8989
sg1208
(lp8990
sg1210
(lp8991
sg1212
(lp8992
sg1214
(lp8993
sg1216
(lp8994
sg1218
(lp8995
sg1220
(lp8996
sg1222
(lp8997
sg1224
(lp8998
sg1226
(lp8999
sg1228
(lp9000
sg1230
(lp9001
sg1232
(lp9002
sg1234
(lp9003
sg1236
(lp9004
sg1238
(lp9005
sg1240
(lp9006
sg1242
(lp9007
sg1244
(lp9008
sg1246
(lp9009
sg1248
(lp9010
sg1250
(lp9011
sg1252
(lp9012
sg1254
(lp9013
sg1256
(lp9014
sg1258
(lp9015
sg1260
(lp9016
sg1262
(lp9017
sg1264
(lp9018
sg1266
(lp9019
sg1268
(lp9020
sg1270
(lp9021
sg1272
(lp9022
sg1274
(lp9023
sg1276
(lp9024
sg1278
(lp9025
sg1280
(lp9026
sg1282
(lp9027
sg1284
(lp9028
sg1286
(lp9029
sg1288
(lp9030
sg1290
(lp9031
sg1292
(lp9032
sg1294
(lp9033
sg1296
(lp9034
sg1298
(lp9035
sg1300
(lp9036
sg1302
(lp9037
sg1304
(lp9038
sg1306
(lp9039
sg1308
(lp9040
sg1310
(lp9041
sg1312
(lp9042
sg1314
(lp9043
sg1316
(lp9044
sg1318
(lp9045
sg1320
(lp9046
sg1322
(lp9047
sg1324
(lp9048
sg1326
(lp9049
sg1328
(lp9050
sg1330
(lp9051
sg1332
(lp9052
sg1334
(lp9053
sg1336
(lp9054
sg1338
(lp9055
sg1340
(lp9056
sg1342
(lp9057
sg1344
(lp9058
sg1346
(lp9059
sg1348
(lp9060
sg1350
(lp9061
sg1352
(lp9062
sg1354
(lp9063
sg1356
(lp9064
sg1358
(lp9065
sg1360
(lp9066
sg1362
(lp9067
sg1364
(lp9068
sg1366
(lp9069
sg1368
(lp9070
sg1370
(lp9071
sg1372
(lp9072
sg1374
(lp9073
sg1376
(lp9074
sg1378
(lp9075
sg1380
(lp9076
sg1382
(lp9077
sg1384
(lp9078
sg1386
(lp9079
sg1388
(lp9080
sg1390
(lp9081
sg1392
(lp9082
sg1394
(lp9083
sg1396
(lp9084
sg1398
(lp9085
sg1400
(lp9086
sg1402
(lp9087
sg1404
(lp9088
sg1406
(lp9089
sg1408
(lp9090
sg1410
(lp9091
sg1412
(lp9092
sg1414
(lp9093
sg1416
(lp9094
sg1418
(lp9095
sg1420
(lp9096
sg1422
(lp9097
sg1424
(lp9098
sg1426
(lp9099
sg1428
(lp9100
sg1430
(lp9101
sg1432
(lp9102
sg1434
(lp9103
sg1436
(lp9104
sg1438
(lp9105
sg1440
(lp9106
sg1442
(lp9107
sg1444
(lp9108
sg1446
(lp9109
sg1448
(lp9110
sg1450
(lp9111
sg1452
(lp9112
sg1454
(lp9113
sg1456
(lp9114
sg1458
(lp9115
sg1460
(lp9116
sg1462
(lp9117
sg1464
(lp9118
sg1466
(lp9119
sg1468
(lp9120
sg1470
(lp9121
sg1472
(lp9122
sg1474
(lp9123
sg1476
(lp9124
sg1478
(lp9125
sg1480
(lp9126
sg1482
(lp9127
sg1484
(lp9128
sg1486
(lp9129
sg1488
(lp9130
sg1490
(lp9131
sg1492
(lp9132
sg1494
(lp9133
sg1496
(lp9134
sg1498
(lp9135
sg1500
(lp9136
sg1502
(lp9137
sg1504
(lp9138
sg1506
(lp9139
sg1508
(lp9140
sg1510
(lp9141
sg1512
(lp9142
sg1514
(lp9143
sg1516
(lp9144
sg1518
(lp9145
sg1520
(lp9146
sg1522
(lp9147
sg1524
(lp9148
sg1526
(lp9149
sg1528
(lp9150
sg1530
(lp9151
sg1532
(lp9152
sg1534
(lp9153
sg1536
(lp9154
sg1538
(lp9155
sg1540
(lp9156
sg1542
(lp9157
sg1544
(lp9158
sg1546
(lp9159
sg1548
(lp9160
sg1550
(lp9161
sg1552
(lp9162
sg1554
(lp9163
sg1556
(lp9164
sg1558
(lp9165
sg1560
(lp9166
sg1562
(lp9167
sg1564
(lp9168
sg1566
(lp9169
sg1568
(lp9170
sg1570
(lp9171
sg1572
(lp9172
sg1574
(lp9173
sg1576
(lp9174
sg1578
(lp9175
sg1580
(lp9176
sg1582
(lp9177
sg1584
(lp9178
sg1586
(lp9179
sg1588
(lp9180
sg1590
(lp9181
sg1592
(lp9182
sg1594
(lp9183
sg1596
(lp9184
sg1598
(lp9185
sg1600
(lp9186
sg1602
(lp9187
sg1604
(lp9188
sg1606
(lp9189
sg1608
(lp9190
sg1610
(lp9191
sg1612
(lp9192
sg1614
(lp9193
sg1616
(lp9194
sg1618
(lp9195
sg1620
(lp9196
sg1622
(lp9197
sg1624
(lp9198
sg1626
(lp9199
sg1628
(lp9200
sg1630
(lp9201
sg1632
(lp9202
sg1634
(lp9203
sg1636
(lp9204
sg1638
(lp9205
sg1640
(lp9206
sg1642
(lp9207
sg1644
(lp9208
sg1646
(lp9209
sg1648
(lp9210
sg1650
(lp9211
sg1652
(lp9212
sg1654
(lp9213
sg1656
(lp9214
sg1658
(lp9215
sg1660
(lp9216
sg1662
(lp9217
sg1664
(lp9218
sg1666
(lp9219
sg1668
(lp9220
sg1670
(lp9221
sg1672
(lp9222
sg1674
(lp9223
sg1676
(lp9224
sg1678
(lp9225
sg1680
(lp9226
sg1682
(lp9227
sg1684
(lp9228
sg1686
(lp9229
sg1688
(lp9230
sg1690
(lp9231
sg1692
(lp9232
sg1694
(lp9233
sg1696
(lp9234
sg1698
(lp9235
sg1700
(lp9236
sg1702
(lp9237
sg1704
(lp9238
sg1706
(lp9239
sg1708
(lp9240
sg1710
(lp9241
sg1712
(lp9242
sg1714
(lp9243
sg1716
(lp9244
sg1718
(lp9245
sg1720
(lp9246
sg1722
(lp9247
sg1724
(lp9248
sg1726
(lp9249
sg1728
(lp9250
sg1730
(lp9251
sg1732
(lp9252
sg1734
(lp9253
sg1736
(lp9254
sg1738
(lp9255
sg1740
(lp9256
sg1742
(lp9257
sg1744
(lp9258
sg1746
(lp9259
sg1748
(lp9260
sg1750
(lp9261
sg1752
(lp9262
sg1754
(lp9263
sg1756
(lp9264
sg1758
(lp9265
sg1760
(lp9266
sg1762
(lp9267
sg1764
(lp9268
sg1766
(lp9269
sg1768
(lp9270
sg1770
(lp9271
sg1772
(lp9272
sg1774
(lp9273
sg1776
(lp9274
sg1778
(lp9275
sg1780
(lp9276
sg1782
(lp9277
sg1784
(lp9278
sg1786
(lp9279
sg1788
(lp9280
sg1790
(lp9281
sg1792
(lp9282
sg1794
(lp9283
sg1796
(lp9284
sg1798
(lp9285
sg1800
(lp9286
sg1802
(lp9287
sg1804
(lp9288
sg1806
(lp9289
sg1808
(lp9290
sg1810
(lp9291
sg1812
(lp9292
sg1814
(lp9293
sg1816
(lp9294
sg1818
(lp9295
sg1820
(lp9296
sg1822
(lp9297
sg1824
(lp9298
sg1826
(lp9299
sg1828
(lp9300
sg1830
(lp9301
sg1832
(lp9302
sg1834
(lp9303
sg1836
(lp9304
sg1838
(lp9305
sg1840
(lp9306
sg1842
(lp9307
sg1844
(lp9308
sg1846
(lp9309
sg1848
(lp9310
sg1850
(lp9311
sg1852
(lp9312
sg1854
(lp9313
sg1856
(lp9314
sg1858
(lp9315
sg1860
(lp9316
sg1862
(lp9317
sg1864
(lp9318
sg1866
(lp9319
sg1868
(lp9320
sg1870
(lp9321
sg1872
(lp9322
sg1874
(lp9323
sg1876
(lp9324
sg1878
(lp9325
sg1880
(lp9326
sg1882
(lp9327
sg1884
(lp9328
sg1886
(lp9329
sg1888
(lp9330
sg1890
(lp9331
sg1892
(lp9332
sg1894
(lp9333
sg1896
(lp9334
sg1898
(lp9335
sg1900
(lp9336
sg1902
(lp9337
sg1904
(lp9338
sg1906
(lp9339
sg1908
(lp9340
sg1910
(lp9341
sg1912
(lp9342
sg1914
(lp9343
sg1916
(lp9344
sg1918
(lp9345
sg1920
(lp9346
sg1922
(lp9347
sg1924
(lp9348
sg1926
(lp9349
sg1928
(lp9350
sg1930
(lp9351
sg1932
(lp9352
sg1934
(lp9353
sg1936
(lp9354
sg1938
(lp9355
sg1940
(lp9356
sg1942
(lp9357
sg1944
(lp9358
sg1946
(lp9359
sg1948
(lp9360
sg1950
(lp9361
sg1952
(lp9362
sg1954
(lp9363
sg1956
(lp9364
sg1958
(lp9365
sg1960
(lp9366
sg1962
(lp9367
sg1964
(lp9368
sg1966
(lp9369
sg1968
(lp9370
sg1970
(lp9371
sg1972
(lp9372
sg1974
(lp9373
sg1976
(lp9374
sg1978
(lp9375
sg1980
(lp9376
sg1982
(lp9377
sg1984
(lp9378
sg1986
(lp9379
sg1988
(lp9380
sg1990
(lp9381
sg1992
(lp9382
sg1994
(lp9383
sg1996
(lp9384
sg1998
(lp9385
sg2000
(lp9386
sg2002
(lp9387
sg2004
(lp9388
sg2006
(lp9389
sg2008
(lp9390
sg2010
(lp9391
sg2012
(lp9392
sg2014
(lp9393
sg2016
(lp9394
sg2018
(lp9395
sg2020
(lp9396
sg2022
(lp9397
sg2024
(lp9398
sg2026
(lp9399
sg2028
(lp9400
sg2030
(lp9401
sg2032
(lp9402
sg2034
(lp9403
sg2036
(lp9404
sg2038
(lp9405
sg2040
(lp9406
sg2042
(lp9407
sg2044
(lp9408
sg2046
(lp9409
sg2048
(lp9410
sg2050
(lp9411
sg2052
(lp9412
sg2054
(lp9413
sg2056
(lp9414
sg2058
(lp9415
sg2060
(lp9416
sg2062
(lp9417
sg2064
(lp9418
sg2066
(lp9419
sg2068
(lp9420
sg2070
(lp9421
sg2072
(lp9422
sg2074
(lp9423
sg2076
(lp9424
sg2078
(lp9425
sg2080
(lp9426
sg2082
(lp9427
sg2084
(lp9428
sg2086
(lp9429
sg2088
(lp9430
sg2090
(lp9431
sg2092
(lp9432
sg2094
(lp9433
sg2096
(lp9434
sg2098
(lp9435
sg2100
(lp9436
sg2102
(lp9437
sg2104
(lp9438
sg2106
(lp9439
sg2108
(lp9440
sg2110
(lp9441
sg2112
(lp9442
sg2114
(lp9443
sg2116
(lp9444
sg2118
(lp9445
sg2120
(lp9446
sg2122
(lp9447
sg2124
(lp9448
sg2126
(lp9449
sg2128
(lp9450
sg2130
(lp9451
sg2132
(lp9452
sg2134
(lp9453
sg2136
(lp9454
sg2138
(lp9455
sg2140
(lp9456
sg2142
(lp9457
sg2144
(lp9458
sg2146
(lp9459
sg2148
(lp9460
sg2150
(lp9461
sg2152
(lp9462
sg2154
(lp9463
sg2156
(lp9464
sg2158
(lp9465
sg2160
(lp9466
sg2162
(lp9467
sg2164
(lp9468
sg2166
(lp9469
sg2168
(lp9470
sg2170
(lp9471
sg2172
(lp9472
sg2174
(lp9473
sg2176
(lp9474
sg2178
(lp9475
sg2180
(lp9476
sg2182
(lp9477
sg2184
(lp9478
sg2186
(lp9479
sg2188
(lp9480
sg2190
(lp9481
sg2192
(lp9482
sg2194
(lp9483
sg2196
(lp9484
sg2198
(lp9485
sg2200
(lp9486
sg2202
(lp9487
sg2204
(lp9488
sg2206
(lp9489
sg2208
(lp9490
sg2210
(lp9491
sg2212
(lp9492
sg2214
(lp9493
sg2216
(lp9494
sg2218
(lp9495
sg2220
(lp9496
sg2222
(lp9497
sg2224
(lp9498
sg2226
(lp9499
sg2228
(lp9500
sg2230
(lp9501
sg2232
(lp9502
sg2234
(lp9503
sg2236
(lp9504
sg2238
(lp9505
sg2240
(lp9506
sg2242
(lp9507
sg2244
(lp9508
sg2246
(lp9509
sg2248
(lp9510
sg2250
(lp9511
sg2252
(lp9512
sg2254
(lp9513
sg2256
(lp9514
sg2258
(lp9515
sg2260
(lp9516
sg2262
(lp9517
sg2264
(lp9518
sg2266
(lp9519
sg2268
(lp9520
sg2270
(lp9521
sg2272
(lp9522
sg2274
(lp9523
sg2276
(lp9524
sg2278
(lp9525
sg2280
(lp9526
sg2282
(lp9527
sg2284
(lp9528
sg2286
(lp9529
sg2288
(lp9530
sg2290
(lp9531
sg2292
(lp9532
sg2294
(lp9533
sg2296
(lp9534
sg2298
(lp9535
sg2300
(lp9536
sg2302
(lp9537
sg2304
(lp9538
sg2306
(lp9539
sg2308
(lp9540
sg2310
(lp9541
sg2312
(lp9542
sg2314
(lp9543
sg2316
(lp9544
sg2318
(lp9545
sg2320
(lp9546
sg2322
(lp9547
sg2324
(lp9548
sg2326
(lp9549
sg2328
(lp9550
sg2330
(lp9551
sg2332
(lp9552
sg2334
(lp9553
sg2336
(lp9554
sg2338
(lp9555
sg2340
(lp9556
sg2342
(lp9557
sg2344
(lp9558
sg2346
(lp9559
sg2348
(lp9560
sg2350
(lp9561
sg2352
(lp9562
sg2354
(lp9563
sg2356
(lp9564
sg2358
(lp9565
sg2360
(lp9566
sg2362
(lp9567
sg2364
(lp9568
sg2366
(lp9569
sg2368
(lp9570
sg2370
(lp9571
sg2372
(lp9572
sg2374
(lp9573
sg2376
(lp9574
sg2378
(lp9575
sg2380
(lp9576
sg2382
(lp9577
sg2384
(lp9578
sg2386
(lp9579
sg2388
(lp9580
sg2390
(lp9581
sg2392
(lp9582
sg2394
(lp9583
sg2396
(lp9584
sg2398
(lp9585
sg2400
(lp9586
sg2402
(lp9587
sg2404
(lp9588
sg2406
(lp9589
sg2408
(lp9590
sg2410
(lp9591
sg2412
(lp9592
sg2414
(lp9593
sg2416
(lp9594
sg2418
(lp9595
sg2420
(lp9596
sg2422
(lp9597
sg2424
(lp9598
sg2426
(lp9599
sg2428
(lp9600
sg2430
(lp9601
sg2432
(lp9602
sg2434
(lp9603
sg2436
(lp9604
sg2438
(lp9605
sg2440
(lp9606
sg2442
(lp9607
sg2444
(lp9608
sg2446
(lp9609
sg2448
(lp9610
sg2450
(lp9611
sg2452
(lp9612
sg2454
(lp9613
sg2456
(lp9614
sg2458
(lp9615
sg2460
(lp9616
sg2462
(lp9617
sg2464
(lp9618
sg2466
(lp9619
sg2468
(lp9620
sg2470
(lp9621
sg2472
(lp9622
sg2474
(lp9623
sg2476
(lp9624
sg2478
(lp9625
sg2480
(lp9626
sg2482
(lp9627
sg2484
(lp9628
sg2486
(lp9629
sg2488
(lp9630
sg2490
(lp9631
sg2492
(lp9632
sg2494
(lp9633
sg2496
(lp9634
sg2498
(lp9635
sg2500
(lp9636
sg2502
(lp9637
sg2504
(lp9638
sg2506
(lp9639
sg2508
(lp9640
sg2510
(lp9641
sg2512
(lp9642
sg2514
(lp9643
sg2516
(lp9644
sg2518
(lp9645
sg2520
(lp9646
sg2522
(lp9647
sg2524
(lp9648
sg2526
(lp9649
sg2528
(lp9650
sg2530
(lp9651
sg2532
(lp9652
sg2534
(lp9653
sg2536
(lp9654
sg2538
(lp9655
sg2540
(lp9656
sg2542
(lp9657
sg2544
(lp9658
sg2546
(lp9659
sg2548
(lp9660
sg2550
(lp9661
sg2552
(lp9662
sg2554
(lp9663
sg2556
(lp9664
sg2558
(lp9665
sg2560
(lp9666
sg2562
(lp9667
sg2564
(lp9668
sg2566
(lp9669
sg2568
(lp9670
sg2570
(lp9671
sg2572
(lp9672
sg2574
(lp9673
sg2576
(lp9674
sg2578
(lp9675
sg2580
(lp9676
sg2582
(lp9677
sg2584
(lp9678
sg2586
(lp9679
sg2588
(lp9680
sg2590
(lp9681
sg2592
(lp9682
sg2594
(lp9683
sg2596
(lp9684
sg2598
(lp9685
sg2600
(lp9686
sg2602
(lp9687
sg2604
(lp9688
sg2606
(lp9689
sg2608
(lp9690
sg2610
(lp9691
sg2612
(lp9692
sg2614
(lp9693
sg2616
(lp9694
sg2618
(lp9695
sg2620
(lp9696
sg2622
(lp9697
sg2624
(lp9698
sg2626
(lp9699
sg2628
(lp9700
sg2630
(lp9701
sg2632
(lp9702
sg2634
(lp9703
sg2636
(lp9704
sg2638
(lp9705
sg2640
(lp9706
sg2642
(lp9707
sg2644
(lp9708
sg2646
(lp9709
sg2648
(lp9710
sg2650
(lp9711
sg2652
(lp9712
sg2654
(lp9713
sg2656
(lp9714
sg2658
(lp9715
sg2660
(lp9716
sg2662
(lp9717
sg2664
(lp9718
sg2666
(lp9719
sg2668
(lp9720
sg2670
(lp9721
sg2672
(lp9722
sg2674
(lp9723
sg2676
(lp9724
sg2678
(lp9725
sg2680
(lp9726
sg2682
(lp9727
sg2684
(lp9728
sg2686
(lp9729
sg2688
(lp9730
sg2690
(lp9731
sg2692
(lp9732
sg2694
(lp9733
sg2696
(lp9734
sg2698
(lp9735
sg2700
(lp9736
sg2702
(lp9737
sg2704
(lp9738
sg2706
(lp9739
sg2708
(lp9740
sg2710
(lp9741
sg2712
(lp9742
sg2714
(lp9743
sg2716
(lp9744
sg2718
(lp9745
sg2720
(lp9746
sg2722
(lp9747
sg2724
(lp9748
sg2726
(lp9749
sg2728
(lp9750
sg2730
(lp9751
sg2732
(lp9752
sg2734
(lp9753
sg2736
(lp9754
sg2738
(lp9755
sg2740
(lp9756
sg2742
(lp9757
sg2744
(lp9758
sg2746
(lp9759
sg2748
(lp9760
sg2750
(lp9761
sg2752
(lp9762
sg2754
(lp9763
sg2756
(lp9764
sg2758
(lp9765
sg2760
(lp9766
sg2762
(lp9767
sg2764
(lp9768
sg2766
(lp9769
sg2768
(lp9770
sg2770
(lp9771
sg2772
(lp9772
sg2774
(lp9773
sg2776
(lp9774
sg2778
(lp9775
sg2780
(lp9776
sg2782
(lp9777
sg2784
(lp9778
sg2786
(lp9779
sg2788
(lp9780
sg2790
(lp9781
sg2792
(lp9782
sg2794
(lp9783
sg2796
(lp9784
sg2798
(lp9785
sg2800
(lp9786
sg2802
(lp9787
sg2804
(lp9788
sg2806
(lp9789
sg2808
(lp9790
sg2810
(lp9791
sg2812
(lp9792
sg2814
(lp9793
sg2816
(lp9794
sg2818
(lp9795
sg2820
(lp9796
sg2822
(lp9797
sg2824
(lp9798
sg2826
(lp9799
sg2828
(lp9800
sg2830
(lp9801
sg2832
(lp9802
sg2834
(lp9803
sg2836
(lp9804
sg2838
(lp9805
sg2840
(lp9806
sg2842
(lp9807
sg2844
(lp9808
sg2846
(lp9809
sg2848
(lp9810
sg2850
(lp9811
sg2852
(lp9812
sg2854
(lp9813
sg2856
(lp9814
sg2858
(lp9815
sg2860
(lp9816
sg2862
(lp9817
sg2864
(lp9818
sg2866
(lp9819
sg2868
(lp9820
sg2870
(lp9821
sg2872
(lp9822
sg2874
(lp9823
sg2876
(lp9824
sg2878
(lp9825
sg2880
(lp9826
sg2882
(lp9827
sg2884
(lp9828
sg2886
(lp9829
sg2888
(lp9830
sg2890
(lp9831
sg2892
(lp9832
sg2894
(lp9833
sg2896
(lp9834
sg2898
(lp9835
sg2900
(lp9836
sg2902
(lp9837
sg2904
(lp9838
sg2906
(lp9839
sg2908
(lp9840
sg2910
(lp9841
sg2912
(lp9842
sg2914
(lp9843
sg2916
(lp9844
sg2918
(lp9845
sg2920
(lp9846
sg2922
(lp9847
sg2924
(lp9848
sg2926
(lp9849
sg2928
(lp9850
sg2930
(lp9851
sg2932
(lp9852
sg2934
(lp9853
sg2936
(lp9854
sg2938
(lp9855
sg2940
(lp9856
sg2942
(lp9857
sg2944
(lp9858
sg2946
(lp9859
sg2948
(lp9860
sg2950
(lp9861
sg2952
(lp9862
sg2954
(lp9863
sg2956
(lp9864
sg2958
(lp9865
sg2960
(lp9866
sg2962
(lp9867
sg2964
(lp9868
sg2966
(lp9869
sg2968
(lp9870
sg2970
(lp9871
sg2972
(lp9872
sg2974
(lp9873
sg2976
(lp9874
sg2978
(lp9875
sg2980
(lp9876
sg2982
(lp9877
sg2984
(lp9878
sg2986
(lp9879
sg2988
(lp9880
sg2990
(lp9881
sg2992
(lp9882
sg2994
(lp9883
sg2996
(lp9884
sg2998
(lp9885
sg3000
(lp9886
sg3002
(lp9887
sg3004
(lp9888
sg3006
(lp9889
sg3008
(lp9890
sg3010
(lp9891
sg3012
(lp9892
sg3014
(lp9893
sg3016
(lp9894
sg3018
(lp9895
sg3020
(lp9896
sg3022
(lp9897
sg3024
(lp9898
sg3026
(lp9899
sg3028
(lp9900
sg3030
(lp9901
sg3032
(lp9902
sg3034
(lp9903
sg3036
(lp9904
sg3038
(lp9905
sg3040
(lp9906
sg3042
(lp9907
sg3044
(lp9908
sg3046
(lp9909
sg3048
(lp9910
sg3050
(lp9911
sg3052
(lp9912
sg3054
(lp9913
sg3056
(lp9914
sg3058
(lp9915
sg3060
(lp9916
sg3062
(lp9917
sg3064
(lp9918
sg3066
(lp9919
sg3068
(lp9920
sg3070
(lp9921
sg3072
(lp9922
sg3074
(lp9923
sg3076
(lp9924
sg3078
(lp9925
sg3080
(lp9926
sg3082
(lp9927
sg3084
(lp9928
sg3086
(lp9929
sg3088
(lp9930
sg3090
(lp9931
sg3092
(lp9932
sg3094
(lp9933
sg3096
(lp9934
sg3098
(lp9935
sg3100
(lp9936
sg3102
(lp9937
sg3104
(lp9938
sg3106
(lp9939
sg3108
(lp9940
sg3110
(lp9941
sg3112
(lp9942
sg3114
(lp9943
sg3116
(lp9944
sg3118
(lp9945
sg3120
(lp9946
sg3122
(lp9947
sg3124
(lp9948
sg3126
(lp9949
sg3128
(lp9950
sg3130
(lp9951
sg3132
(lp9952
sg3134
(lp9953
sg3136
(lp9954
sg3138
(lp9955
sg3140
(lp9956
sg3142
(lp9957
sg3144
(lp9958
sg3146
(lp9959
sg3148
(lp9960
sg3150
(lp9961
sg3152
(lp9962
sg3154
(lp9963
sg3156
(lp9964
sg3158
(lp9965
sg3160
(lp9966
sg3162
(lp9967
sg3164
(lp9968
sg3166
(lp9969
sg3168
(lp9970
sg3170
(lp9971
sg3172
(lp9972
sg3174
(lp9973
sg3176
(lp9974
sg3178
(lp9975
sg3180
(lp9976
sg3182
(lp9977
sg3184
(lp9978
sg3186
(lp9979
sg3188
(lp9980
sg3190
(lp9981
sg3192
(lp9982
sg3194
(lp9983
sg3196
(lp9984
sg3198
(lp9985
sg3200
(lp9986
sg3202
(lp9987
sg3204
(lp9988
sg3206
(lp9989
sg3208
(lp9990
sg3210
(lp9991
sg3212
(lp9992
sg3214
(lp9993
sg3216
(lp9994
sg3218
(lp9995
sg3220
(lp9996
sg3222
(lp9997
sg3224
(lp9998
sg3226
(lp9999
sg3228
(lp10000
sg3230
(lp10001
sg3232
(lp10002
sg3234
(lp10003
sg3236
(lp10004
sg3238
(lp10005
sg3240
(lp10006
sg3242
(lp10007
sg3244
(lp10008
sg3246
(lp10009
sg3248
(lp10010
sg3250
(lp10011
sg3252
(lp10012
sg3254
(lp10013
sg3256
(lp10014
sg3258
(lp10015
sg3260
(lp10016
sg3262
(lp10017
sg3264
(lp10018
sg3266
(lp10019
sg3268
(lp10020
sg3270
(lp10021
sg3272
(lp10022
sg3274
(lp10023
sg3276
(lp10024
sg3278
(lp10025
sg3280
(lp10026
sg3282
(lp10027
sg3284
(lp10028
sg3286
(lp10029
sg3288
(lp10030
sg3290
(lp10031
sg3292
(lp10032
sg3294
(lp10033
sg3296
(lp10034
sg3298
(lp10035
sg3300
(lp10036
sg3302
(lp10037
sg3304
(lp10038
sg3306
(lp10039
sg3308
(lp10040
sg3310
(lp10041
sg3312
(lp10042
sg3314
(lp10043
sg3316
(lp10044
sg3318
(lp10045
sg3320
(lp10046
sg3322
(lp10047
sg3324
(lp10048
sg3326
(lp10049
sg3328
(lp10050
sg3330
(lp10051
sg3332
(lp10052
sg3334
(lp10053
sg3336
(lp10054
sg3338
(lp10055
sg3340
(lp10056
sg3342
(lp10057
sg3344
(lp10058
sg3346
(lp10059
sg3348
(lp10060
sg3350
(lp10061
sg3352
(lp10062
sg3354
(lp10063
sg3356
(lp10064
sg3358
(lp10065
sg3360
(lp10066
sg3362
(lp10067
sg3364
(lp10068
sg3366
(lp10069
sg3368
(lp10070
sg3370
(lp10071
sg3372
(lp10072
sg3374
(lp10073
sg3376
(lp10074
sg3378
(lp10075
sg3380
(lp10076
sg3382
(lp10077
sg3384
(lp10078
sg3386
(lp10079
sg3388
(lp10080
sg3390
(lp10081
sg3392
(lp10082
sg3394
(lp10083
sg3396
(lp10084
sg3398
(lp10085
sg3400
(lp10086
sg3402
(lp10087
sg3404
(lp10088
sg3406
(lp10089
sg3408
(lp10090
sg3410
(lp10091
sg3412
(lp10092
sg3414
(lp10093
sg3416
(lp10094
sg3418
(lp10095
sg3420
(lp10096
sg3422
(lp10097
sg3424
(lp10098
sg3426
(lp10099
sg3428
(lp10100
sg3430
(lp10101
sg3432
(lp10102
sg3434
(lp10103
sg3436
(lp10104
sg3438
(lp10105
sg3440
(lp10106
sg3442
(lp10107
sg3444
(lp10108
sg3446
(lp10109
sg3448
(lp10110
sg3450
(lp10111
sg3452
(lp10112
sg3454
(lp10113
sg3456
(lp10114
sg3458
(lp10115
sg3460
(lp10116
sg3462
(lp10117
sg3464
(lp10118
sg3466
(lp10119
sg3468
(lp10120
sg3470
(lp10121
sg3472
(lp10122
sg3474
(lp10123
sg3476
(lp10124
sg3478
(lp10125
sg3480
(lp10126
sg3482
(lp10127
sg3484
(lp10128
sg3486
(lp10129
sg3488
(lp10130
sg3490
(lp10131
sg3492
(lp10132
sg3494
(lp10133
sg3496
(lp10134
sg3498
(lp10135
sg3500
(lp10136
sg3502
(lp10137
sg3504
(lp10138
sg3506
(lp10139
sg3508
(lp10140
sg3510
(lp10141
sg3512
(lp10142
sg3514
(lp10143
sg3516
(lp10144
sg3518
(lp10145
sg3520
(lp10146
sg3522
(lp10147
sg3524
(lp10148
sg3526
(lp10149
sg3528
(lp10150
sg3530
(lp10151
sg3532
(lp10152
sg3534
(lp10153
sg3536
(lp10154
sg3538
(lp10155
sg3540
(lp10156
sg3542
(lp10157
sg3544
(lp10158
sg3546
(lp10159
sg3548
(lp10160
sg3550
(lp10161
sg3552
(lp10162
sg3554
(lp10163
sg3556
(lp10164
sg3558
(lp10165
sg3560
(lp10166
sg3562
(lp10167
sg3564
(lp10168
sg3566
(lp10169
sg3568
(lp10170
sg3570
(lp10171
sg3572
(lp10172
sg3574
(lp10173
sg3576
(lp10174
sg3578
(lp10175
sg3580
(lp10176
sg3582
(lp10177
sg3584
(lp10178
sg3586
(lp10179
sg3588
(lp10180
sg3590
(lp10181
sg3592
(lp10182
sg3594
(lp10183
sg3596
(lp10184
sg3598
(lp10185
sg3600
(lp10186
sg3602
(lp10187
sg3604
(lp10188
sg3606
(lp10189
sg3608
(lp10190
sg3610
(lp10191
sg3612
(lp10192
sg3614
(lp10193
sg3616
(lp10194
sg3618
(lp10195
sg3620
(lp10196
sg3622
(lp10197
sg3624
(lp10198
sg3626
(lp10199
sg3628
(lp10200
sg3630
(lp10201
sg3632
(lp10202
sg3634
(lp10203
sg3636
(lp10204
sg3638
(lp10205
sg3640
(lp10206
sg3642
(lp10207
sg3644
(lp10208
sg3646
(lp10209
sg3648
(lp10210
sg3650
(lp10211
sg3652
(lp10212
sg3654
(lp10213
sg3656
(lp10214
sg3658
(lp10215
sg3660
(lp10216
sg3662
(lp10217
sg3664
(lp10218
sg3666
(lp10219
sg3668
(lp10220
sg3670
(lp10221
sg3672
(lp10222
sg3674
(lp10223
sg3676
(lp10224
sg3678
(lp10225
sg3680
(lp10226
sg3682
(lp10227
sg3684
(lp10228
sg3686
(lp10229
sg3688
(lp10230
sg3690
(lp10231
sg3692
(lp10232
sg3694
(lp10233
sg3696
(lp10234
sg3698
(lp10235
sg3700
(lp10236
sg3702
(lp10237
sg3704
(lp10238
sg3706
(lp10239
sg3708
(lp10240
sg3710
(lp10241
sg3712
(lp10242
sg3714
(lp10243
sg3716
(lp10244
sg3718
(lp10245
sg3720
(lp10246
sg3722
(lp10247
sg3724
(lp10248
sg3726
(lp10249
sg3728
(lp10250
sg3730
(lp10251
sg3732
(lp10252
sg3734
(lp10253
sg3736
(lp10254
sg3738
(lp10255
sg3740
(lp10256
sg3742
(lp10257
sg3744
(lp10258
sg3746
(lp10259
sg3748
(lp10260
sg3750
(lp10261
sg3752
(lp10262
sg3754
(lp10263
sg3756
(lp10264
sg3758
(lp10265
sg3760
(lp10266
sg3762
(lp10267
sg3764
(lp10268
sg3766
(lp10269
sg3768
(lp10270
sg3770
(lp10271
sg3772
(lp10272
sg3774
(lp10273
sg3776
(lp10274
sg3778
(lp10275
sg3780
(lp10276
sg3782
(lp10277
sg3784
(lp10278
sg3786
(lp10279
sg3788
(lp10280
sg3790
(lp10281
sg3792
(lp10282
sg3794
(lp10283
sg3796
(lp10284
sg3798
(lp10285
sg3800
(lp10286
sg3802
(lp10287
sg3804
(lp10288
sg3806
(lp10289
sg3808
(lp10290
sg3810
(lp10291
sg3812
(lp10292
sg3814
(lp10293
sg3816
(lp10294
sg3818
(lp10295
sg3820
(lp10296
sg3822
(lp10297
sg3824
(lp10298
sg3826
(lp10299
sg3828
(lp10300
sg3830
(lp10301
sg3832
(lp10302
sg3834
(lp10303
sg3836
(lp10304
sg3838
(lp10305
sg3840
(lp10306
sg3842
(lp10307
sg3844
(lp10308
sg3846
(lp10309
sg3848
(lp10310
sg3850
(lp10311
sg3852
(lp10312
sg3854
(lp10313
sg3856
(lp10314
sg3858
(lp10315
sg3860
(lp10316
sg3862
(lp10317
sg3864
(lp10318
sg3866
(lp10319
sg3868
(lp10320
sg3870
(lp10321
sg3872
(lp10322
sg3874
(lp10323
sg3876
(lp10324
sg3878
(lp10325
sg3880
(lp10326
sg3882
(lp10327
sg3884
(lp10328
sg3886
(lp10329
sg3888
(lp10330
sg3890
(lp10331
sg3892
(lp10332
sg3894
(lp10333
sg3896
(lp10334
sg3898
(lp10335
sg3900
(lp10336
sg3902
(lp10337
sg3904
(lp10338
sg3906
(lp10339
sg3908
(lp10340
sg3910
(lp10341
sg3912
(lp10342
sg3914
(lp10343
sg3916
(lp10344
sg3918
(lp10345
sg3920
(lp10346
sg3922
(lp10347
sg3924
(lp10348
sg3926
(lp10349
sg3928
(lp10350
sg3930
(lp10351
sg3932
(lp10352
sg3934
(lp10353
sg3936
(lp10354
sg3938
(lp10355
sg3940
(lp10356
sg3942
(lp10357
sg3944
(lp10358
sg3946
(lp10359
sg3948
(lp10360
sg3950
(lp10361
sg3952
(lp10362
sg3954
(lp10363
sg3956
(lp10364
sg3958
(lp10365
sg3960
(lp10366
sg3962
(lp10367
sg3964
(lp10368
sg3966
(lp10369
sg3968
(lp10370
sg3970
(lp10371
sg3972
(lp10372
sg3974
(lp10373
sg3976
(lp10374
sg3978
(lp10375
sg3980
(lp10376
sg3982
(lp10377
sg3984
(lp10378
sg3986
(lp10379
sg3988
(lp10380
sg3990
(lp10381
sg3992
(lp10382
sg3994
(lp10383
sg3996
(lp10384
sg3998
(lp10385
sg4000
(lp10386
sg4002
(lp10387
sg4004
(lp10388
sg4006
(lp10389
sg4008
(lp10390
sg4010
(lp10391
sg4012
(lp10392
sg4014
(lp10393
sg4016
(lp10394
sg4018
(lp10395
sg4020
(lp10396
sg4022
(lp10397
sg4024
(lp10398
sg4026
(lp10399
sg4028
(lp10400
sg4030
(lp10401
sg4032
(lp10402
sg4034
(lp10403
sg4036
(lp10404
sg4038
(lp10405
sg4040
(lp10406
sg4042
(lp10407
sg4044
(lp10408
sg4046
(lp10409
sg4048
(lp10410
sg4050
(lp10411
sg4052
(lp10412
sg4054
(lp10413
sg4056
(lp10414
sg4058
(lp10415
sg4060
(lp10416
sg4062
(lp10417
sg4064
(lp10418
sg4066
(lp10419
sg4068
(lp10420
sg4070
(lp10421
sg4072
(lp10422
sg4074
(lp10423
sg4076
(lp10424
sg4078
(lp10425
sg4080
(lp10426
sg4082
(lp10427
sg4084
(lp10428
sg4086
(lp10429
sg4088
(lp10430
sg4090
(lp10431
sg4092
(lp10432
sg4094
(lp10433
sg4096
(lp10434
sg4098
(lp10435
sg4100
(lp10436
sg4102
(lp10437
sg4104
(lp10438
sg4106
(lp10439
sg4108
(lp10440
sg4110
(lp10441
sg4112
(lp10442
sg4114
(lp10443
sg4116
(lp10444
sg4118
(lp10445
sg4120
(lp10446
sg4122
(lp10447
sg4124
(lp10448
sg4126
(lp10449
sg4128
(lp10450
sg4130
(lp10451
sg4132
(lp10452
sg4134
(lp10453
sg4136
(lp10454
sg4138
(lp10455
sg4140
(lp10456
sg4142
(lp10457
sg4144
(lp10458
sg4146
(lp10459
sg4148
(lp10460
sg4150
(lp10461
sg4152
(lp10462
sg4154
(lp10463
sg4156
(lp10464
sg4158
(lp10465
sg4160
(lp10466
sg4162
(lp10467
sg4164
(lp10468
sg4166
(lp10469
sg4168
(lp10470
sg4170
(lp10471
sg4172
(lp10472
sg4174
(lp10473
sg4176
(lp10474
sg4178
(lp10475
sg4180
(lp10476
sg4182
(lp10477
sg4184
(lp10478
sg4186
(lp10479
sg4188
(lp10480
sg4190
(lp10481
sg4192
(lp10482
sg4194
(lp10483
sg4196
(lp10484
sg4198
(lp10485
sg4200
(lp10486
sg4202
(lp10487
sg4204
(lp10488
sg4206
(lp10489
sg4208
(lp10490
sg4210
(lp10491
sg4212
(lp10492
sg4214
(lp10493
sg4216
(lp10494
sg4218
(lp10495
sg4220
(lp10496
sg4222
(lp10497
sg4224
(lp10498
sg4226
(lp10499
sg4228
(lp10500
sg4230
(lp10501
sg4232
(lp10502
sg4234
(lp10503
sg4236
(lp10504
sg4238
(lp10505
sg4240
(lp10506
sg4242
(lp10507
sg4244
(lp10508
sg4246
(lp10509
sg4248
(lp10510
sg4250
(lp10511
sg4252
(lp10512
sg4254
(lp10513
sg4256
(lp10514
sg4258
(lp10515
sg4260
(lp10516
sg4262
(lp10517
sg4264
(lp10518
sg4266
(lp10519
sg4268
(lp10520
sg4270
(lp10521
sg4272
(lp10522
sg4274
(lp10523
sg4276
(lp10524
sg4278
(lp10525
sg4280
(lp10526
sg4282
(lp10527
sg4284
(lp10528
sg4286
(lp10529
sg4288
(lp10530
sg4290
(lp10531
sg4292
(lp10532
sg4294
(lp10533
sg4296
(lp10534
sg4298
(lp10535
sg4300
(lp10536
sg4302
(lp10537
sg4304
(lp10538
sg4306
(lp10539
sg4308
(lp10540
sg4310
(lp10541
sg4312
(lp10542
sg4314
(lp10543
sg4316
(lp10544
sg4318
(lp10545
sg4320
(lp10546
sg4322
(lp10547
sg4324
(lp10548
sg4326
(lp10549
sg4328
(lp10550
sg4330
(lp10551
sg4332
(lp10552
sg4334
(lp10553
sg4336
(lp10554
sg4338
(lp10555
sg4340
(lp10556
sg4342
(lp10557
sg4344
(lp10558
sg4346
(lp10559
sg4348
(lp10560
sg4350
(lp10561
sg4352
(lp10562
sg4354
(lp10563
sg4356
(lp10564
sg4358
(lp10565
sg4360
(lp10566
sg4362
(lp10567
sg4364
(lp10568
sg4366
(lp10569
sg4368
(lp10570
sg4370
(lp10571
sg4372
(lp10572
sg4374
(lp10573
sg4376
(lp10574
sg4378
(lp10575
sg4380
(lp10576
sg4382
(lp10577
sg4384
(lp10578
sg4386
(lp10579
sg4388
(lp10580
sg4390
(lp10581
sg4392
(lp10582
sg4394
(lp10583
sg4396
(lp10584
sg4398
(lp10585
sg4400
(lp10586
sg4402
(lp10587
sg4404
(lp10588
sg4406
(lp10589
sg4408
(lp10590
sg4410
(lp10591
sg4412
(lp10592
sg4414
(lp10593
sg4416
(lp10594
sg4418
(lp10595
sg4420
(lp10596
sg4422
(lp10597
sg4424
(lp10598
sg4426
(lp10599
sg4428
(lp10600
sg4430
(lp10601
sg4432
(lp10602
sg4434
(lp10603
sg4436
(lp10604
sg4438
(lp10605
sg4440
(lp10606
sg4442
(lp10607
sg4444
(lp10608
sg4446
(lp10609
sg4448
(lp10610
sg4450
(lp10611
sg4452
(lp10612
sg4454
(lp10613
sg4456
(lp10614
sg4458
(lp10615
sg4460
(lp10616
sg4462
(lp10617
sg4464
(lp10618
sg4466
(lp10619
sg4468
(lp10620
sg4470
(lp10621
sg4472
(lp10622
sg4474
(lp10623
sg4476
(lp10624
sg4478
(lp10625
sg4480
(lp10626
sg4482
(lp10627
sg4484
(lp10628
sg4486
(lp10629
sg4488
(lp10630
sg4490
(lp10631
sg4492
(lp10632
sg4494
(lp10633
sg4496
(lp10634
sg4498
(lp10635
sg4500
(lp10636
sg4502
(lp10637
sg4504
(lp10638
sg4506
(lp10639
sg4508
(lp10640
sg4510
(lp10641
sg4512
(lp10642
sg4514
(lp10643
sg4516
(lp10644
sg4518
(lp10645
sg4520
(lp10646
sg4522
(lp10647
sg4524
(lp10648
sg4526
(lp10649
sg4528
(lp10650
sg4530
(lp10651
sg4532
(lp10652
sg4534
(lp10653
sg4536
(lp10654
sg4538
(lp10655
sg4540
(lp10656
sg4542
(lp10657
sg4544
(lp10658
sg4546
(lp10659
sg4548
(lp10660
sg4550
(lp10661
sg4552
(lp10662
sg4554
(lp10663
sg4556
(lp10664
sg4558
(lp10665
sg4560
(lp10666
sg4562
(lp10667
sg4564
(lp10668
sg4566
(lp10669
sg4568
(lp10670
sg4570
(lp10671
sg4572
(lp10672
sg4574
(lp10673
sg4576
(lp10674
sg4578
(lp10675
sg4580
(lp10676
sg4582
(lp10677
sg4584
(lp10678
sg4586
(lp10679
sg4588
(lp10680
sg4590
(lp10681
sg4592
(lp10682
sg4594
(lp10683
sg4596
(lp10684
sg4598
(lp10685
sg4600
(lp10686
sg4602
(lp10687
sg4604
(lp10688
sg4606
(lp10689
sg4608
(lp10690
sg4610
(lp10691
sg4612
(lp10692
sg4614
(lp10693
sg4616
(lp10694
sg4618
(lp10695
sg4620
(lp10696
sg4622
(lp10697
sg4624
(lp10698
sg4626
(lp10699
sg4628
(lp10700
sg4630
(lp10701
sg4632
(lp10702
sg4634
(lp10703
sg4636
(lp10704
sg4638
(lp10705
sg4640
(lp10706
sg4642
(lp10707
sg4644
(lp10708
sg4646
(lp10709
sg4648
(lp10710
sg4650
(lp10711
sg4652
(lp10712
sg4654
(lp10713
sg4656
(lp10714
sg4658
(lp10715
sg4660
(lp10716
sg4662
(lp10717
sg4664
(lp10718
sg4666
(lp10719
sg4668
(lp10720
sg4670
(lp10721
sg4672
(lp10722
sg4674
(lp10723
sg4676
(lp10724
sg4678
(lp10725
sg4680
(lp10726
sg4682
(lp10727
sg4684
(lp10728
sg4686
(lp10729
sg4688
(lp10730
sg4690
(lp10731
sg4692
(lp10732
sg4694
(lp10733
sg4696
(lp10734
sg4698
(lp10735
sg4700
(lp10736
sg4702
(lp10737
sg4704
(lp10738
sg4706
(lp10739
sg4708
(lp10740
sg4710
(lp10741
sg4712
(lp10742
sg4714
(lp10743
sg4716
(lp10744
sg4718
(lp10745
sg4720
(lp10746
sg4722
(lp10747
sg4724
(lp10748
sg4726
(lp10749
sg4728
(lp10750
sg4730
(lp10751
sg4732
(lp10752
sg4734
(lp10753
sg4736
(lp10754
sg4738
(lp10755
sg4740
(lp10756
sg4742
(lp10757
sg4744
(lp10758
sg4746
(lp10759
sg4748
(lp10760
sg4750
(lp10761
sg4752
(lp10762
sg4754
(lp10763
sg4756
(lp10764
sg4758
(lp10765
sg4760
(lp10766
sg4762
(lp10767
sg4764
(lp10768
sg4766
(lp10769
sg4768
(lp10770
sg4770
(lp10771
sg4772
(lp10772
sg4774
(lp10773
sg4776
(lp10774
sg4778
(lp10775
sg4780
(lp10776
sg4782
(lp10777
sg4784
(lp10778
sg4786
(lp10779
sg4788
(lp10780
sg4790
(lp10781
sg4792
(lp10782
sg4794
(lp10783
sg4796
(lp10784
sg4798
(lp10785
sg4800
(lp10786
sg4802
(lp10787
sg4804
(lp10788
sg4806
(lp10789
sg4808
(lp10790
sg4810
(lp10791
sg4812
(lp10792
sg4814
(lp10793
sg4816
(lp10794
sg4818
(lp10795
sg4820
(lp10796
sg4822
(lp10797
sg4824
(lp10798
sg4826
(lp10799
sg4828
(lp10800
sg4830
(lp10801
sg4832
(lp10802
sg4834
(lp10803
sg4836
(lp10804
sg4838
(lp10805
sg4840
(lp10806
sg4842
(lp10807
sg4844
(lp10808
sg4846
(lp10809
sg4848
(lp10810
sg4850
(lp10811
sg4852
(lp10812
sg4854
(lp10813
sg4856
(lp10814
sg4858
(lp10815
sg4860
(lp10816
sg4862
(lp10817
sg4864
(lp10818
sg4866
(lp10819
sg4868
(lp10820
sg4870
(lp10821
sg4872
(lp10822
sg4874
(lp10823
sg4876
(lp10824
sg4878
(lp10825
sg4880
(lp10826
sg4882
(lp10827
sg4884
(lp10828
sg4886
(lp10829
sg4888
(lp10830
sg4890
(lp10831
sg4892
(lp10832
sg4894
(lp10833
sg4896
(lp10834
sg4898
(lp10835
sg4900
(lp10836
sg4902
(lp10837
sg4904
(lp10838
sg4906
(lp10839
sg4908
(lp10840
sg4910
(lp10841
sg4912
(lp10842
sg4914
(lp10843
sg4916
(lp10844
sg4918
(lp10845
sg4920
(lp10846
sg4922
(lp10847
sg4924
(lp10848
sg4926
(lp10849
sg4928
(lp10850
sg4930
(lp10851
sg4932
(lp10852
sg4934
(lp10853
sg4936
(lp10854
sg4938
(lp10855
sg4940
(lp10856
sg4942
(lp10857
sg4944
(lp10858
sg4946
(lp10859
sg4948
(lp10860
sg4950
(lp10861
sg4952
(lp10862
sg4954
(lp10863
sg4956
(lp10864
sg4958
(lp10865
sg4960
(lp10866
sg4962
(lp10867
sg4964
(lp10868
sg4966
(lp10869
sg4968
(lp10870
sg4970
(lp10871
sg4972
(lp10872
sg4974
(lp10873
sg4976
(lp10874
sg4978
(lp10875
sg4980
(lp10876
sg4982
(lp10877
sg4984
(lp10878
sg4986
(lp10879
sg4988
(lp10880
sg4990
(lp10881
sg4992
(lp10882
sg4994
(lp10883
sg4996
(lp10884
sg4998
(lp10885
sg5000
(lp10886
sg5002
(lp10887
sg5004
(lp10888
sg5006
(lp10889
sg5008
(lp10890
sg5010
(lp10891
sg5012
(lp10892
sg5014
(lp10893
sg5016
(lp10894
sg5018
(lp10895
sg5020
(lp10896
sg5022
(lp10897
sg5024
(lp10898
sg5026
(lp10899
sg5028
(lp10900
sg5030
(lp10901
sg5032
(lp10902
sg5034
(lp10903
sg5036
(lp10904
sg5038
(lp10905
sg5040
(lp10906
sg5042
(lp10907
sg5044
(lp10908
sg5046
(lp10909
sg5048
(lp10910
sg5050
(lp10911
sg5052
(lp10912
sg5054
(lp10913
sg5056
(lp10914
sg5058
(lp10915
sg5060
(lp10916
sg5062
(lp10917
sg5064
(lp10918
sg5066
(lp10919
sg5068
(lp10920
sg5070
(lp10921
sg5072
(lp10922
sg5074
(lp10923
sg5076
(lp10924
sg5078
(lp10925
sg5080
(lp10926
sg5082
(lp10927
sg5084
(lp10928
sg5086
(lp10929
sg5088
(lp10930
sg5090
(lp10931
sg5092
(lp10932
sg5094
(lp10933
sg5096
(lp10934
sg5098
(lp10935
sg5100
(lp10936
sg5102
(lp10937
sg5104
(lp10938
sg5106
(lp10939
sg5108
(lp10940
sg5110
(lp10941
sg5112
(lp10942
sg5114
(lp10943
sg5116
(lp10944
sg5118
(lp10945
sg5120
(lp10946
sg5122
(lp10947
sg5124
(lp10948
sg5126
(lp10949
sg5128
(lp10950
sg5130
(lp10951
sg5132
(lp10952
sg5134
(lp10953
sg5136
(lp10954
sg5138
(lp10955
sg5140
(lp10956
sg5142
(lp10957
sg5144
(lp10958
sg5146
(lp10959
sg5148
(lp10960
sg5150
(lp10961
sg5152
(lp10962
sg5154
(lp10963
sg5156
(lp10964
sg5158
(lp10965
sg5160
(lp10966
sg5162
(lp10967
sg5164
(lp10968
sg5166
(lp10969
sg5168
(lp10970
sg5170
(lp10971
sg5172
(lp10972
sg5174
(lp10973
sg5176
(lp10974
sg5178
(lp10975
sg5180
(lp10976
sg5182
(lp10977
sg5184
(lp10978
sg5186
(lp10979
sg5188
(lp10980
sg5190
(lp10981
sg5192
(lp10982
sg5194
(lp10983
sg5196
(lp10984
sg5198
(lp10985
sg5200
(lp10986
sg5202
(lp10987
sg5204
(lp10988
sg5206
(lp10989
sg5208
(lp10990
sg5210
(lp10991
sg5212
(lp10992
sg5214
(lp10993
sg5216
(lp10994
sg5218
(lp10995
sg5220
(lp10996
sg5222
(lp10997
sg5224
(lp10998
sg5226
(lp10999
sg5228
(lp11000
sg5230
(lp11001
sg5232
(lp11002
sg5234
(lp11003
sg5236
(lp11004
sg5238
(lp11005
sg5240
(lp11006
sg5242
(lp11007
sg5244
(lp11008
sg5246
(lp11009
sg5248
(lp11010
sg5250
(lp11011
sg5252
(lp11012
sg5254
(lp11013
sg5256
(lp11014
sg5258
(lp11015
sg5260
(lp11016
sg5262
(lp11017
sg5264
(lp11018
sg5266
(lp11019
sg5268
(lp11020
sg5270
(lp11021
sg5272
(lp11022
sg5274
(lp11023
sg5276
(lp11024
sg5278
(lp11025
sg5280
(lp11026
sg5282
(lp11027
sg5284
(lp11028
sg5286
(lp11029
sg5288
(lp11030
sg5290
(lp11031
sg5292
(lp11032
sg5294
(lp11033
sg5296
(lp11034
sg5298
(lp11035
sg5300
(lp11036
sg5302
(lp11037
sg5304
(lp11038
sg5306
(lp11039
sg5308
(lp11040
sg5310
(lp11041
sg5312
(lp11042
sg5314
(lp11043
sg5316
(lp11044
sg5318
(lp11045
sg5320
(lp11046
sg5322
(lp11047
sg5324
(lp11048
sg5326
(lp11049
sg5328
(lp11050
sg5330
(lp11051
sg5332
(lp11052
sg5334
(lp11053
sg5336
(lp11054
sg5338
(lp11055
sg5340
(lp11056
sg5342
(lp11057
sg5344
(lp11058
sg5346
(lp11059
sg5348
(lp11060
sg5350
(lp11061
sg5352
(lp11062
sg5354
(lp11063
sg5356
(lp11064
sg5358
(lp11065
sg5360
(lp11066
sg5362
(lp11067
sg5364
(lp11068
sg5366
(lp11069
sg5368
(lp11070
sg5370
(lp11071
sg5372
(lp11072
sg5374
(lp11073
sg5376
(lp11074
sg5378
(lp11075
sg5380
(lp11076
sg5382
(lp11077
sg5384
(lp11078
sg5386
(lp11079
sg5388
(lp11080
sg5390
(lp11081
sg5392
(lp11082
sg5394
(lp11083
sg5396
(lp11084
sg5398
(lp11085
sg5400
(lp11086
sg5402
(lp11087
sg5404
(lp11088
sg5406
(lp11089
sg5408
(lp11090
sg5410
(lp11091
sg5412
(lp11092
sg5414
(lp11093
sg5416
(lp11094
sg5418
(lp11095
sg5420
(lp11096
sg5422
(lp11097
sg5424
(lp11098
sg5426
(lp11099
sg5428
(lp11100
sg5430
(lp11101
sg5432
(lp11102
sg5434
(lp11103
sg5436
(lp11104
sg5438
(lp11105
sg5440
(lp11106
sg5442
(lp11107
sg5444
(lp11108
sg5446
(lp11109
sg5448
(lp11110
sg5450
(lp11111
sg5452
(lp11112
sg5454
(lp11113
sg5456
(lp11114
sg5458
(lp11115
sg5460
(lp11116
sg5462
(lp11117
sg5464
(lp11118
sg5466
(lp11119
sg5468
(lp11120
sg5470
(lp11121
sg5472
(lp11122
sg5474
(lp11123
sg5476
(lp11124
sg5478
(lp11125
sg5480
(lp11126
sg5482
(lp11127
sg5484
(lp11128
sg5486
(lp11129
sg5488
(lp11130
sg5490
(lp11131
sg5492
(lp11132
sg5494
(lp11133
sg5496
(lp11134
sg5498
(lp11135
sg5500
(lp11136
sg5502
(lp11137
sg5504
(lp11138
sg5506
(lp11139
sg5508
(lp11140
sg5510
(lp11141
sg5512
(lp11142
sg5514
(lp11143
sg5516
(lp11144
sg5518
(lp11145
sg5520
(lp11146
sg5522
(lp11147
sg5524
(lp11148
sg5526
(lp11149
sg5528
(lp11150
sg5530
(lp11151
sg5532
(lp11152
sg5534
(lp11153
sg5536
(lp11154
sg5538
(lp11155
sg5540
(lp11156
sg5542
(lp11157
sg5544
(lp11158
sg5546
(lp11159
sg5548
(lp11160
sg5550
(lp11161
sg5552
(lp11162
sg5554
(lp11163
sg5556
(lp11164
sg5558
(lp11165
sg5560
(lp11166
sg5562
(lp11167
sg5564
(lp11168
sg5566
(lp11169
sg5568
(lp11170
sg5570
(lp11171
sg5572
(lp11172
sg5574
(lp11173
sg5576
(lp11174
sg5578
(lp11175
sg5580
(lp11176
sg5582
(lp11177
sg5584
(lp11178
sg5586
(lp11179
sg5588
(lp11180
sg5590
(lp11181
sg5592
(lp11182
sg5594
(lp11183
sg5596
(lp11184
sg5598
(lp11185
sg5600
(lp11186
sg5602
(lp11187
sg5604
(lp11188
sg5606
(lp11189
sg5608
(lp11190
sg5610
(lp11191
sg5612
(lp11192
sg5614
(lp11193
sg5616
(lp11194
sg5618
(lp11195
sg5620
(lp11196
sg5622
(lp11197
sg5624
(lp11198
sg5626
(lp11199
sg5628
(lp11200
sg5630
(lp11201
sg5632
(lp11202
sg5634
(lp11203
sg5636
(lp11204
sg5638
(lp11205
sg5640
(lp11206
sg5642
(lp11207
sg5644
(lp11208
sg5646
(lp11209
sg5648
(lp11210
sg5650
(lp11211
sg5652
(lp11212
sg5654
(lp11213
sg5656
(lp11214
sg5658
(lp11215
sg5660
(lp11216
sg5662
(lp11217
sg5664
(lp11218
sg5666
(lp11219
sg5668
(lp11220
sg5670
(lp11221
sg5672
(lp11222
sg5674
(lp11223
sg5676
(lp11224
sg5678
(lp11225
sg5680
(lp11226
sg5682
(lp11227
sg5684
(lp11228
sg5686
(lp11229
sg5688
(lp11230
sg5690
(lp11231
sg5692
(lp11232
sg5694
(lp11233
sg5696
(lp11234
sg5698
(lp11235
sg5700
(lp11236
sg5702
(lp11237
sg5704
(lp11238
sg5706
(lp11239
sg5708
(lp11240
sg5710
(lp11241
sg5712
(lp11242
sg5714
(lp11243
sg5716
(lp11244
sg5718
(lp11245
sg5720
(lp11246
sg5722
(lp11247
sg5724
(lp11248
sg5726
(lp11249
sg5728
(lp11250
sg5730
(lp11251
sg5732
(lp11252
sg5734
(lp11253
sg5736
(lp11254
sg5738
(lp11255
sg5740
(lp11256
sg5742
(lp11257
sg5744
(lp11258
sg5746
(lp11259
sg5748
(lp11260
sg5750
(lp11261
sg5752
(lp11262
sg5754
(lp11263
sg5756
(lp11264
sg5758
(lp11265
sg5760
(lp11266
sg5762
(lp11267
sg5764
(lp11268
sg5766
(lp11269
sg5768
(lp11270
sg5770
(lp11271
sg5772
(lp11272
sg5774
(lp11273
sg5776
(lp11274
sg5778
(lp11275
sg5780
(lp11276
sg5782
(lp11277
sg5784
(lp11278
sg5786
(lp11279
sg5788
(lp11280
sg5790
(lp11281
sg5792
(lp11282
sg5794
(lp11283
sg5796
(lp11284
sg5798
(lp11285
sg5800
(lp11286
sg5802
(lp11287
sg5804
(lp11288
sg5806
(lp11289
sg5808
(lp11290
sg5810
(lp11291
sg5812
(lp11292
sg5814
(lp11293
sg5816
(lp11294
sg5818
(lp11295
sg5820
(lp11296
sg5822
(lp11297
sg5824
(lp11298
sg5826
(lp11299
sg5828
(lp11300
sg5830
(lp11301
sg5832
(lp11302
sg5834
(lp11303
sg5836
(lp11304
sg5838
(lp11305
sg5840
(lp11306
sg5842
(lp11307
sg5844
(lp11308
sg5846
(lp11309
sg5848
(lp11310
sg5850
(lp11311
sg5852
(lp11312
sg5854
(lp11313
sg5856
(lp11314
sg5858
(lp11315
sg5860
(lp11316
sg5862
(lp11317
sg5864
(lp11318
sg5866
(lp11319
sg5868
(lp11320
sg5870
(lp11321
sg5872
(lp11322
sg5874
(lp11323
sg5876
(lp11324
sg5878
(lp11325
sg5880
(lp11326
sg5882
(lp11327
sg5884
(lp11328
sg5886
(lp11329
sg5888
(lp11330
sg5890
(lp11331
sg5892
(lp11332
sg5894
(lp11333
sg5896
(lp11334
sg5898
(lp11335
sg5900
(lp11336
sg5902
(lp11337
sg5904
(lp11338
sg5906
(lp11339
sg5908
(lp11340
sg5910
(lp11341
sg5912
(lp11342
sg5914
(lp11343
sg5916
(lp11344
sg5918
(lp11345
sg5920
(lp11346
sg5922
(lp11347
sg5924
(lp11348
sg5926
(lp11349
sg5928
(lp11350
sg5930
(lp11351
sg5932
(lp11352
sg5934
(lp11353
sg5936
(lp11354
sg5938
(lp11355
sg5940
(lp11356
sg5942
(lp11357
sg5944
(lp11358
sg5946
(lp11359
sg5948
(lp11360
sg5950
(lp11361
sg5952
(lp11362
sg5954
(lp11363
sg5956
(lp11364
sg5958
(lp11365
sg5960
(lp11366
sg5962
(lp11367
sg5964
(lp11368
sg5966
(lp11369
sg5968
(lp11370
sg5970
(lp11371
sg5972
(lp11372
sg5974
(lp11373
sg5976
(lp11374
sg5978
(lp11375
sg5980
(lp11376
sg5982
(lp11377
sg5984
(lp11378
sg5986
(lp11379
sg5988
(lp11380
sg5990
(lp11381
sg5992
(lp11382
sg5994
(lp11383
sg5996
(lp11384
sg5998
(lp11385
sg6000
(lp11386
sg6002
(lp11387
sg6004
(lp11388
sg6006
(lp11389
sg6008
(lp11390
sg6010
(lp11391
sg6012
(lp11392
sg6014
(lp11393
sg6016
(lp11394
sg6018
(lp11395
sg6020
(lp11396
sg6022
(lp11397
sg6024
(lp11398
sg6026
(lp11399
sg6028
(lp11400
sg6030
(lp11401
sg6032
(lp11402
sg6034
(lp11403
sg6036
(lp11404
sg6038
(lp11405
sg6040
(lp11406
sg6042
(lp11407
sg6044
(lp11408
sg6046
(lp11409
sg6048
(lp11410
sg6050
(lp11411
sg6052
(lp11412
sg6054
(lp11413
sg6056
(lp11414
sg6058
(lp11415
sg6060
(lp11416
sg6062
(lp11417
sg6064
(lp11418
sg6066
(lp11419
sg6068
(lp11420
sg6070
(lp11421
sg6072
(lp11422
sg6074
(lp11423
sg6076
(lp11424
sg6078
(lp11425
sg6080
(lp11426
sg6082
(lp11427
sg6084
(lp11428
sg6086
(lp11429
sg6088
(lp11430
sg6090
(lp11431
sg6092
(lp11432
sg6094
(lp11433
sg6096
(lp11434
sg6098
(lp11435
sg6100
(lp11436
sg6102
(lp11437
sg6104
(lp11438
sg6106
(lp11439
sg6108
(lp11440
sg6110
(lp11441
sg6112
(lp11442
sg6114
(lp11443
sg6116
(lp11444
sg6118
(lp11445
sg6120
(lp11446
sg6122
(lp11447
sg6124
(lp11448
sg6126
(lp11449
sg6128
(lp11450
sg6130
(lp11451
sg6132
(lp11452
sg6134
(lp11453
sg6136
(lp11454
sg6138
(lp11455
sg6140
(lp11456
sg6142
(lp11457
sg6144
(lp11458
sg6146
(lp11459
sg6148
(lp11460
sg6150
(lp11461
sg6152
(lp11462
sg6154
(lp11463
sg6156
(lp11464
sg6158
(lp11465
sg6160
(lp11466
sg6162
(lp11467
sg6164
(lp11468
sg6166
(lp11469
sg6168
(lp11470
sg6170
(lp11471
sg6172
(lp11472
sg6174
(lp11473
sg6176
(lp11474
sg6178
(lp11475
sg6180
(lp11476
sg6182
(lp11477
sg6184
(lp11478
sg6186
(lp11479
sg6188
(lp11480
sg6190
(lp11481
sg6192
(lp11482
sg6194
(lp11483
sg6196
(lp11484
sg6198
(lp11485
sg6200
(lp11486
sg6202
(lp11487
sg6204
(lp11488
sg6206
(lp11489
sg6208
(lp11490
sg6210
(lp11491
sg6212
(lp11492
sg6214
(lp11493
sg6216
(lp11494
sg6218
(lp11495
sg6220
(lp11496
sg6222
(lp11497
sg6224
(lp11498
sg6226
(lp11499
sg6228
(lp11500
sg6230
(lp11501
sg6232
(lp11502
sg6234
(lp11503
sg6236
(lp11504
sg6238
(lp11505
sg6240
(lp11506
sg6242
(lp11507
sg6244
(lp11508
sg6246
(lp11509
sg6248
(lp11510
sg6250
(lp11511
sg6252
(lp11512
sg6254
(lp11513
sg6256
(lp11514
sg6258
(lp11515
sg6260
(lp11516
sg6262
(lp11517
sg6264
(lp11518
sg6266
(lp11519
sg6268
(lp11520
sg6270
(lp11521
sg6272
(lp11522
sg6274
(lp11523
sg6276
(lp11524
sg6278
(lp11525
sg6280
(lp11526
sg6282
(lp11527
sg6284
(lp11528
sg6286
(lp11529
sg6288
(lp11530
sg6290
(lp11531
sg6292
(lp11532
sg6294
(lp11533
sg6296
(lp11534
sg6298
(lp11535
sg6300
(lp11536
sg6302
(lp11537
sg6304
(lp11538
sg6306
(lp11539
sg6308
(lp11540
sg6310
(lp11541
sg6312
(lp11542
sg6314
(lp11543
sg6316
(lp11544
sg6318
(lp11545
sg6320
(lp11546
sg6322
(lp11547
sg6324
(lp11548
sg6326
(lp11549
sg6328
(lp11550
sg6330
(lp11551
sg6332
(lp11552
sg6334
(lp11553
sg6336
(lp11554
sg6338
(lp11555
sg6340
(lp11556
sg6342
(lp11557
sg6344
(lp11558
sg6346
(lp11559
sg6348
(lp11560
sg6350
(lp11561
sg6352
(lp11562
sg6354
(lp11563
sg6356
(lp11564
sg6358
(lp11565
sg6360
(lp11566
sg6362
(lp11567
sg6364
(lp11568
sg6366
(lp11569
sg6368
(lp11570
sg6370
(lp11571
sg6372
(lp11572
sg6374
(lp11573
sg6376
(lp11574
sg6378
(lp11575
sg6380
(lp11576
sg6382
(lp11577
sg6384
(lp11578
sg6386
(lp11579
sg6388
(lp11580
sg6390
(lp11581
sg6392
(lp11582
sg6394
(lp11583
sg6396
(lp11584
sg6398
(lp11585
sg6400
(lp11586
sg6402
(lp11587
sg6404
(lp11588
sg6406
(lp11589
sg6408
(lp11590
sg6410
(lp11591
sg6412
(lp11592
sg6414
(lp11593
sg6416
(lp11594
sg6418
(lp11595
sg6420
(lp11596
sg6422
(lp11597
sg6424
(lp11598
sg6426
(lp11599
sg6428
(lp11600
sg6430
(lp11601
sg6432
(lp11602
sg6434
(lp11603
sg6436
(lp11604
sg6438
(lp11605
sg6440
(lp11606
sg6442
(lp11607
sg6444
(lp11608
sg6446
(lp11609
sg6448
(lp11610
sg6450
(lp11611
sg6452
(lp11612
sg6454
(lp11613
sg6456
(lp11614
sg6458
(lp11615
sg6460
(lp11616
sg6462
(lp11617
sg6464
(lp11618
sg6466
(lp11619
sg6468
(lp11620
sg6470
(lp11621
sg6472
(lp11622
sg6474
(lp11623
sg6476
(lp11624
sg6478
(lp11625
sg6480
(lp11626
sg6482
(lp11627
sg6484
(lp11628
sg6486
(lp11629
sg6488
(lp11630
sg6490
(lp11631
sg6492
(lp11632
sg6494
(lp11633
sg6496
(lp11634
sg6498
(lp11635
sg6500
(lp11636
sg6502
(lp11637
sg6504
(lp11638
sg6506
(lp11639
sg6508
(lp11640
sg6510
(lp11641
sg6512
(lp11642
sg6514
(lp11643
sg6516
(lp11644
sg6518
(lp11645
sg6520
(lp11646
sg6522
(lp11647
sg6524
(lp11648
sg6526
(lp11649
sg6528
(lp11650
sg6530
(lp11651
sg6532
(lp11652
sg6534
(lp11653
sg6536
(lp11654
sg6538
(lp11655
sg6540
(lp11656
sg6542
(lp11657
sg6544
(lp11658
sg6546
(lp11659
sg6548
(lp11660
sg6550
(lp11661
sg6552
(lp11662
sg6554
(lp11663
sg6556
(lp11664
sg6558
(lp11665
sg6560
(lp11666
sg6562
(lp11667
sg6564
(lp11668
sg6566
(lp11669
sg6568
(lp11670
sg6570
(lp11671
sg6572
(lp11672
sg6574
(lp11673
sg6576
(lp11674
sg6578
(lp11675
sg6580
(lp11676
sg6582
(lp11677
sg6584
(lp11678
sg6586
(lp11679
sg6588
(lp11680
sg6590
(lp11681
sg6592
(lp11682
sg6594
(lp11683
sg6596
(lp11684
sg6598
(lp11685
sg6600
(lp11686
sg6602
(lp11687
sg6604
(lp11688
sg6606
(lp11689
sg6608
(lp11690
sg6610
(lp11691
sg6612
(lp11692
sg6614
(lp11693
sg6616
(lp11694
sg6618
(lp11695
sg6620
(lp11696
sg6622
(lp11697
sg6624
(lp11698
sg6626
(lp11699
sg6628
(lp11700
sg6630
(lp11701
sg6632
(lp11702
sg6634
(lp11703
sg6636
(lp11704
sg6638
(lp11705
sg6640
(lp11706
sg6642
(lp11707
sg6644
(lp11708
sg6646
(lp11709
sg6648
(lp11710
sg6650
(lp11711
sg6652
(lp11712
sg6654
(lp11713
sg6656
(lp11714
sg6658
(lp11715
sg6660
(lp11716
sg6662
(lp11717
sg6664
(lp11718
sg6666
(lp11719
sg6668
(lp11720
sg6670
(lp11721
sg6672
(lp11722
sg6674
(lp11723
sg6676
(lp11724
sg6678
(lp11725
sg6680
(lp11726
sg6682
(lp11727
sg6684
(lp11728
sg6686
(lp11729
sg6688
(lp11730
sg6690
(lp11731
sg6692
(lp11732
sg6694
(lp11733
sg6696
(lp11734
sg6698
(lp11735
sg6700
(lp11736
sg6702
(lp11737
sg6704
(lp11738
sg6706
(lp11739
sg6708
(lp11740
sg6710
(lp11741
sg6712
(lp11742
sg6714
(lp11743
sg6716
(lp11744
sg6718
(lp11745
sg6720
(lp11746
sg6722
(lp11747
sg6724
(lp11748
sg6726
(lp11749
sg6728
(lp11750
sg6730
(lp11751
sg6732
(lp11752
sg6734
(lp11753
sg6736
(lp11754
sg6738
(lp11755
sg6740
(lp11756
sg6742
(lp11757
sg6744
(lp11758
sg6746
(lp11759
sg6748
(lp11760
sg6750
(lp11761
sg6752
(lp11762
sg6754
(lp11763
sg6756
(lp11764
sg6758
(lp11765
sg6760
(lp11766
sg6762
(lp11767
sg6764
(lp11768
sg6766
(lp11769
sg6768
(lp11770
sg6770
(lp11771
sg6772
(lp11772
sg6774
(lp11773
sg6776
(lp11774
sg6778
(lp11775
sg6780
(lp11776
sg6782
(lp11777
sg6784
(lp11778
sg6786
(lp11779
sg6788
(lp11780
sg6790
(lp11781
sg6792
(lp11782
sg6794
(lp11783
sg6796
(lp11784
sg6798
(lp11785
sg6800
(lp11786
sg6802
(lp11787
sg6804
(lp11788
sg6806
(lp11789
sg6808
(lp11790
sg6810
(lp11791
sg6812
(lp11792
sg6814
(lp11793
sg6816
(lp11794
sg6818
(lp11795
sg6820
(lp11796
sg6822
(lp11797
sg6824
(lp11798
sg6826
(lp11799
sg6828
(lp11800
sg6830
(lp11801
sg6832
(lp11802
sg6834
(lp11803
sg6836
(lp11804
sg6838
(lp11805
sg6840
(lp11806
sg6842
(lp11807
sg6844
(lp11808
sg6846
(lp11809
sg6848
(lp11810
sg6850
(lp11811
sg6852
(lp11812
sg6854
(lp11813
sg6856
(lp11814
sg6858
(lp11815
sg6860
(lp11816
sg6862
(lp11817
sg6864
(lp11818
sg6866
(lp11819
sg6868
(lp11820
sg6870
(lp11821
sg6872
(lp11822
sg6874
(lp11823
sg6876
(lp11824
sg6878
(lp11825
sg6880
(lp11826
sg6882
(lp11827
sg6884
(lp11828
sg6886
(lp11829
sg6888
(lp11830
sg6890
(lp11831
sg6892
(lp11832
sg6894
(lp11833
sg6896
(lp11834
sg6898
(lp11835
sg6900
(lp11836
sg6902
(lp11837
sg6904
(lp11838
sg6906
(lp11839
sg6908
(lp11840
sg6910
(lp11841
sg6912
(lp11842
sg6914
(lp11843
sg6916
(lp11844
sg6918
(lp11845
sg6920
(lp11846
sg6922
(lp11847
sg6924
(lp11848
sg6926
(lp11849
sg6928
(lp11850
sg6930
(lp11851
sg6932
(lp11852
sg6934
(lp11853
sg6936
(lp11854
sg6938
(lp11855
sg6940
(lp11856
sg6942
(lp11857
sg6944
(lp11858
sg6946
(lp11859
sg6948
(lp11860
sg6950
(lp11861
sg6952
(lp11862
sg6954
(lp11863
sg6956
(lp11864
sg6958
(lp11865
sg6960
(lp11866
sg6962
(lp11867
sg6964
(lp11868
sg6966
(lp11869
sg6968
(lp11870
sg6970
(lp11871
sg6972
(lp11872
sg6974
(lp11873
sg6976
(lp11874
sg6978
(lp11875
sg6980
(lp11876
sg6982
(lp11877
sg6984
(lp11878
sg6986
(lp11879
sg6988
(lp11880
sg6990
(lp11881
sg6992
(lp11882
sg6994
(lp11883
sg6996
(lp11884
sg6998
(lp11885
sg7000
(lp11886
sg7002
(lp11887
sg7004
(lp11888
sg7006
(lp11889
sg7008
(lp11890
sg7010
(lp11891
sg7012
(lp11892
sg7014
(lp11893
sg7016
(lp11894
sg7018
(lp11895
sg7020
(lp11896
sg7022
(lp11897
sg7024
(lp11898
sg7026
(lp11899
sg7028
(lp11900
sg7030
(lp11901
sg7032
(lp11902
sg7034
(lp11903
sg7036
(lp11904
sg7038
(lp11905
sg7040
(lp11906
sg7042
(lp11907
sg7044
(lp11908
sg7046
(lp11909
sg7048
(lp11910
sg7050
(lp11911
sg7052
(lp11912
sg7054
(lp11913
sg7056
(lp11914
sg7058
(lp11915
sg7060
(lp11916
sg7062
(lp11917
sg7064
(lp11918
sg7066
(lp11919
sg7068
(lp11920
sg7070
(lp11921
sg7072
(lp11922
sg7074
(lp11923
sg7076
(lp11924
sg7078
(lp11925
sg7080
(lp11926
sg7082
(lp11927
sg7084
(lp11928
sg7086
(lp11929
sg7088
(lp11930
sg7090
(lp11931
sg7092
(lp11932
sg7094
(lp11933
sg7096
(lp11934
sg7098
(lp11935
sg7100
(lp11936
sg7102
(lp11937
sg7104
(lp11938
sg7106
(lp11939
sg7108
(lp11940
sg7110
(lp11941
sg7112
(lp11942
sg7114
(lp11943
sg7116
(lp11944
sg7118
(lp11945
sg7120
(lp11946
sg7122
(lp11947
sg7124
(lp11948
sg7126
(lp11949
sg7128
(lp11950
sg7130
(lp11951
sg7132
(lp11952
sg7134
(lp11953
sg7136
(lp11954
sg7138
(lp11955
sg7140
(lp11956
sg7142
(lp11957
sg7144
(lp11958
sg7146
(lp11959
sg7148
(lp11960
sg7150
(lp11961
sg7152
(lp11962
sg7154
(lp11963
sg7156
(lp11964
sg7158
(lp11965
sg7160
(lp11966
sg7162
(lp11967
sg7164
(lp11968
sg7166
(lp11969
sg7168
(lp11970
sg7170
(lp11971
sg7172
(lp11972
sg7174
(lp11973
sg7176
(lp11974
sg7178
(lp11975
sg7180
(lp11976
sg7182
(lp11977
sg7184
(lp11978
sg7186
(lp11979
sg7188
(lp11980
sg7190
(lp11981
sg7192
(lp11982
sg7194
(lp11983
sg7196
(lp11984
sg7198
(lp11985
sg7200
(lp11986
sg7202
(lp11987
sg7204
(lp11988
sg7206
(lp11989
sg7208
(lp11990
sg7210
(lp11991
sg7212
(lp11992
sg7214
(lp11993
sg7216
(lp11994
sg7218
(lp11995
sg7220
(lp11996
sg7222
(lp11997
sg7224
(lp11998
sg7226
(lp11999
sg7228
(lp12000
sg7230
(lp12001
sg7232
(lp12002
sg7234
(lp12003
sg7236
(lp12004
sg7238
(lp12005
sg7240
(lp12006
sg7242
(lp12007
sg7244
(lp12008
sg7246
(lp12009
sg7248
(lp12010
sg7250
(lp12011
sg7252
(lp12012
sg7254
(lp12013
sg7256
(lp12014
sg7258
(lp12015
sg7260
(lp12016
sg7262
(lp12017
sg7264
(lp12018
sg7266
(lp12019
sg7268
(lp12020
sg7270
(lp12021
sg7272
(lp12022
sg7274
(lp12023
sg7276
(lp12024
sg7278
(lp12025
sg7280
(lp12026
sg7282
(lp12027
sg7284
(lp12028
sg7286
(lp12029
sg7288
(lp12030
sg7290
(lp12031
sg7292
(lp12032
sg7294
(lp12033
sg7296
(lp12034
sg7298
(lp12035
sg7300
(lp12036
sg7302
(lp12037
sg7304
(lp12038
sg7306
(lp12039
sg7308
(lp12040
sg7310
(lp12041
sg7312
(lp12042
sg7314
(lp12043
sg7316
(lp12044
sg7318
(lp12045
sg7320
(lp12046
sg7322
(lp12047
sg7324
(lp12048
sg7326
(lp12049
sg7328
(lp12050
sg7330
(lp12051
sg7332
(lp12052
sg7334
(lp12053
sg7336
(lp12054
sg7338
(lp12055
sg7340
(lp12056
sg7342
(lp12057
sg7344
(lp12058
sg7346
(lp12059
sg7348
(lp12060
sg7350
(lp12061
sg7352
(lp12062
sg7354
(lp12063
sg7356
(lp12064
sg7358
(lp12065
sg7360
(lp12066
sg7362
(lp12067
sg7364
(lp12068
sg7366
(lp12069
sg7368
(lp12070
sg7370
(lp12071
sg7372
(lp12072
sg7374
(lp12073
sg7376
(lp12074
sg7378
(lp12075
sg7380
(lp12076
sg7382
(lp12077
sg7384
(lp12078
sg7386
(lp12079
sg7388
(lp12080
sg7390
(lp12081
sg7392
(lp12082
sg7394
(lp12083
sg7396
(lp12084
sg7398
(lp12085
sg7400
(lp12086
sg7402
(lp12087
sg7404
(lp12088
sg7406
(lp12089
sg7408
(lp12090
sg7410
(lp12091
sg7412
(lp12092
sg7414
(lp12093
sg7416
(lp12094
sg7418
(lp12095
sg7420
(lp12096
sg7422
(lp12097
sg7424
(lp12098
sg7426
(lp12099
sg7428
(lp12100
sg7430
(lp12101
sg7432
(lp12102
sg7434
(lp12103
sg7436
(lp12104
sg7438
(lp12105
sg7440
(lp12106
sg7442
(lp12107
sg7444
(lp12108
sg7446
(lp12109
sg7448
(lp12110
sg7450
(lp12111
sg7452
(lp12112
sg7454
(lp12113
sg7456
(lp12114
sg7458
(lp12115
sg7460
(lp12116
sg7462
(lp12117
sg7464
(lp12118
sg7466
(lp12119
sg7468
(lp12120
sg7470
(lp12121
sg7472
(lp12122
sg7474
(lp12123
sg7476
(lp12124
sg7478
(lp12125
sg7480
(lp12126
sg7482
(lp12127
sg7484
(lp12128
sg7486
(lp12129
sg7488
(lp12130
sg7490
(lp12131
sg7492
(lp12132
sg7494
(lp12133
sg7496
(lp12134
sg7498
(lp12135
sg7500
(lp12136
sg7502
(lp12137
sg7504
(lp12138
sg7506
(lp12139
sg7508
(lp12140
sg7510
(lp12141
sg7512
(lp12142
sg7514
(lp12143
sg7516
(lp12144
sg7518
(lp12145
sg7520
(lp12146
sg7522
(lp12147
sg7524
(lp12148
sg7526
(lp12149
sg7528
(lp12150
sg7530
(lp12151
sg7532
(lp12152
sg7534
(lp12153
sg7536
(lp12154
sg7538
(lp12155
sg7540
(lp12156
sg7542
(lp12157
sg7544
(lp12158
sg7546
(lp12159
sg7548
(lp12160
sg7550
(lp12161
sg7552
(lp12162
sg7554
(lp12163
sg7556
(lp12164
sg7558
(lp12165
sg7560
(lp12166
sg7562
(lp12167
sg7564
(lp12168
sg7566
(lp12169
sg7568
(lp12170
sg7570
(lp12171
sg7572
(lp12172
sg7574
(lp12173
sg7576
(lp12174
sg7578
(lp12175
sg7580
(lp12176
sg7582
(lp12177
sg7584
(lp12178
sg7586
(lp12179
sg7588
(lp12180
sg7590
(lp12181
sg7592
(lp12182
sg7594
(lp12183
sg7596
(lp12184
sg7598
(lp12185
sg7600
(lp12186
sg7602
(lp12187
sg7604
(lp12188
sg7606
(lp12189
sg7608
(lp12190
sg7610
(lp12191
sg7612
(lp12192
sg7614
(lp12193
sg7616
(lp12194
sg7618
(lp12195
sg7620
(lp12196
sg7622
(lp12197
sg7624
(lp12198
sg7626
(lp12199
sg7628
(lp12200
sg7630
(lp12201
sg7632
(lp12202
sg7634
(lp12203
sg7636
(lp12204
sg7638
(lp12205
sg7640
(lp12206
sg7642
(lp12207
sg7644
(lp12208
sg7646
(lp12209
sg7648
(lp12210
sg7650
(lp12211
sg7652
(lp12212
sg7654
(lp12213
sg7656
(lp12214
sg7658
(lp12215
sg7660
(lp12216
sg7662
(lp12217
sg7664
(lp12218
sg7666
(lp12219
sg7668
(lp12220
sg7670
(lp12221
sg7672
(lp12222
sg7674
(lp12223
sg7676
(lp12224
sg7678
(lp12225
sg7680
(lp12226
sg7682
(lp12227
sg7684
(lp12228
sg7686
(lp12229
sg7688
(lp12230
sg7690
(lp12231
sg7692
(lp12232
sg7694
(lp12233
sg7696
(lp12234
sg7698
(lp12235
sg7700
(lp12236
sg7702
(lp12237
sg7704
(lp12238
sg7706
(lp12239
sg7708
(lp12240
sg7710
(lp12241
sg7712
(lp12242
sg7714
(lp12243
sg7716
(lp12244
sg7718
(lp12245
sg7720
(lp12246
sg7722
(lp12247
sg7724
(lp12248
sg7726
(lp12249
sg7728
(lp12250
sg7730
(lp12251
sg7732
(lp12252
sg7734
(lp12253
sg7736
(lp12254
sg7738
(lp12255
sg7740
(lp12256
sg7742
(lp12257
sg7744
(lp12258
sg7746
(lp12259
sg7748
(lp12260
sg7750
(lp12261
sg7752
(lp12262
sg7754
(lp12263
sg7756
(lp12264
sg7758
(lp12265
sg7760
(lp12266
sg7762
(lp12267
sg7764
(lp12268
sg7766
(lp12269
sg7768
(lp12270
sg7770
(lp12271
sg7772
(lp12272
sg7774
(lp12273
sg7776
(lp12274
sg7778
(lp12275
sg7780
(lp12276
sg7782
(lp12277
sg7784
(lp12278
sg7786
(lp12279
sg7788
(lp12280
sg7790
(lp12281
sg7792
(lp12282
sg7794
(lp12283
sg7796
(lp12284
sg7798
(lp12285
sg7800
(lp12286
sg7802
(lp12287
sg7804
(lp12288
sg7806
(lp12289
sg7808
(lp12290
sg7810
(lp12291
sg7812
(lp12292
sg7814
(lp12293
sg7816
(lp12294
sg7818
(lp12295
sg7820
(lp12296
sg7822
(lp12297
sg7824
(lp12298
sg7826
(lp12299
sg7828
(lp12300
sg7830
(lp12301
sg7832
(lp12302
sg7834
(lp12303
sg7836
(lp12304
sg7838
(lp12305
sg7840
(lp12306
sg7842
(lp12307
sg7844
(lp12308
sg7846
(lp12309
sg7848
(lp12310
sg7850
(lp12311
sg7852
(lp12312
sg7854
(lp12313
sg7856
(lp12314
sg7858
(lp12315
sg7860
(lp12316
sg7862
(lp12317
sg7864
(lp12318
sg7866
(lp12319
sg7868
(lp12320
sg7870
(lp12321
sg7872
(lp12322
sg7874
(lp12323
sg7876
(lp12324
sg7878
(lp12325
sg7880
(lp12326
sg7882
(lp12327
sg7884
(lp12328
sg7886
(lp12329
sg7888
(lp12330
sg7890
(lp12331
sg7892
(lp12332
sg7894
(lp12333
sg7896
(lp12334
sg7898
(lp12335
sg7900
(lp12336
sg7902
(lp12337
sg7904
(lp12338
sg7906
(lp12339
sg7908
(lp12340
sg7910
(lp12341
sg7912
(lp12342
sg7914
(lp12343
sg7916
(lp12344
sg7918
(lp12345
sg7920
(lp12346
sg7922
(lp12347
sg7924
(lp12348
sg7926
(lp12349
sg7928
(lp12350
sg7930
(lp12351
sg7932
(lp12352
sg7934
(lp12353
sg7936
(lp12354
sg7938
(lp12355
sg7940
(lp12356
sg7942
(lp12357
sg7944
(lp12358
sg7946
(lp12359
sg7948
(lp12360
sg7950
(lp12361
sg7952
(lp12362
sg7954
(lp12363
sg7956
(lp12364
sg7958
(lp12365
sg7960
(lp12366
sg7962
(lp12367
sg7964
(lp12368
sg7966
(lp12369
sg7968
(lp12370
sg7970
(lp12371
sg7972
(lp12372
sg7974
(lp12373
sg7976
(lp12374
sg7978
(lp12375
sg7980
(lp12376
sg7982
(lp12377
sg7984
(lp12378
sg7986
(lp12379
sg7988
(lp12380
sg7990
(lp12381
sg7992
(lp12382
sg7994
(lp12383
sg7996
(lp12384
sg7998
(lp12385
sg8000
(lp12386
sg8002
(lp12387
sg8004
(lp12388
sg8006
(lp12389
sg8008
(lp12390
sg8010
(lp12391
sg8012
(lp12392
sg8014
(lp12393
sg8016
(lp12394
sg8018
(lp12395
sg8020
(lp12396
sg8022
(lp12397
sg8024
(lp12398
sg8026
(lp12399
sg8028
(lp12400
sg8030
(lp12401
sg8032
(lp12402
sg8034
(lp12403
sg8036
(lp12404
sg8038
(lp12405
sg8040
(lp12406
sg8042
(lp12407
sg8044
(lp12408
sg8046
(lp12409
sg8048
(lp12410
sg8050
(lp12411
sg8052
(lp12412
sg8054
(lp12413
sg8056
(lp12414
sg8058
(lp12415
sg8060
(lp12416
sg8062
(lp12417
sg8064
(lp12418
sg8066
(lp12419
sg8068
(lp12420
sg8070
(lp12421
sg8072
(lp12422
sg8074
(lp12423
sg8076
(lp12424
sg8078
(lp12425
sg8080
(lp12426
sg8082
(lp12427
sg8084
(lp12428
sg8086
(lp12429
sg8088
(lp12430
sg8090
(lp12431
sg8092
(lp12432
sg8094
(lp12433
sg8096
(lp12434
sg8098
(lp12435
sg8100
(lp12436
sg8102
(lp12437
sg8104
(lp12438
sg8106
(lp12439
sg8108
(lp12440
sg8110
(lp12441
sg8112
(lp12442
sg8114
(lp12443
sg8116
(lp12444
sg8118
(lp12445
sg8120
(lp12446
sg8122
(lp12447
sg8124
(lp12448
sg8126
(lp12449
sg8128
(lp12450
sg8130
(lp12451
sg8132
(lp12452
sg8134
(lp12453
sg8136
(lp12454
sg8138
(lp12455
sg8140
(lp12456
sg8142
(lp12457
sg8144
(lp12458
sg8146
(lp12459
sg8148
(lp12460
sg8150
(lp12461
sg8152
(lp12462
sg8154
(lp12463
sg8156
(lp12464
sg8158
(lp12465
sg8160
(lp12466
sg8162
(lp12467
sg8164
(lp12468
sg8166
(lp12469
sg8168
(lp12470
sg8170
(lp12471
sg8172
(lp12472
sg8174
(lp12473
sg8176
(lp12474
sg8178
(lp12475
sg8180
(lp12476
sg8182
(lp12477
sg8184
(lp12478
sg8186
(lp12479
sg8188
(lp12480
sg8190
(lp12481
sg8192
(lp12482
sg8194
(lp12483
sg8196
(lp12484
sg8198
(lp12485
sg8200
(lp12486
sg8202
(lp12487
sg8204
(lp12488
sg8206
(lp12489
sg8208
(lp12490
sg8210
(lp12491
sg8212
(lp12492
sg8214
(lp12493
sg8216
(lp12494
sg8218
(lp12495
sg8220
(lp12496
sg8222
(lp12497
sg8224
(lp12498
sg8226
(lp12499
sg8228
(lp12500
sg8230
(lp12501
sg8232
(lp12502
sg8234
(lp12503
sg8236
(lp12504
sg8238
(lp12505
sg8240
(lp12506
sg8242
(lp12507
sg8244
(lp12508
sg8246
(lp12509
sg8248
(lp12510
sg8250
(lp12511
sg8252
(lp12512
sg8254
(lp12513
sg8256
(lp12514
sg8258
(lp12515
sg8260
(lp12516
sg8262
(lp12517
sg8264
(lp12518
sg8266
(lp12519
sg8268
(lp12520
sg8270
(lp12521
sg8272
(lp12522
sg8274
(lp12523
sg8276
(lp12524
sg8278
(lp12525
sg8280
(lp12526
sg8282
(lp12527
sg8284
(lp12528
sg8286
(lp12529
sg8288
(lp12530
sg8290
(lp12531
sg8292
(lp12532
sg8294
(lp12533
sg8296
(lp12534
sg8298
(lp12535
sg8300
(lp12536
sg8302
(lp12537
sg8304
(lp12538
sg8306
(lp12539
sg8308
(lp12540
sg8310
(lp12541
sg8312
(lp12542
sg8314
(lp12543
sg8316
(lp12544
sg8318
(lp12545
sg8320
(lp12546
sg8322
(lp12547
sg8324
(lp12548
sg8326
(lp12549
sg8328
(lp12550
sg8330
(lp12551
sg8332
(lp12552
sg8334
(lp12553
sg8336
(lp12554
sg8338
(lp12555
sg8340
(lp12556
sg8342
(lp12557
sg8344
(lp12558
sg8346
(lp12559
sg8348
(lp12560
sg8350
(lp12561
sg8352
(lp12562
sg8354
(lp12563
sg8356
(lp12564
sg8358
(lp12565
sg8360
(lp12566
sg8362
(lp12567
sg8364
(lp12568
sg8366
(lp12569
sg8368
(lp12570
sg8370
(lp12571
sg8372
(lp12572
sg8374
(lp12573
sg8376
(lp12574
sg8378
(lp12575
sg8380
(lp12576
sg8382
(lp12577
sg8384
(lp12578
sg8386
(lp12579
ssS'edge_properties'
p12580
(dp12581
sb.