(dp1
S'pKS800'
p2
ccopy_reg
_reconstructor
p3
(cBio.SeqRecord
SeqRecord
p4
c__builtin__
object
p5
NtRp6
(dp7
S'dbxrefs'
p8
(lp9
sS'description'
p10
S'Cloning vector pKS800 DNA, complete sequence.'
p11
sS'annotations'
p12
(dp13
S'sequence_version'
p14
I1
sS'source'
p15
S'Cloning vector pKS800'
p16
sS'taxonomy'
p17
(lp18
S'other sequences'
p19
aS'artificial sequences'
p20
aS'vectors'
p21
asS'keywords'
p22
(lp23
S''
asS'references'
p24
(lp25
g3
(cBio.SeqFeature
Reference
p26
g5
NtRp27
(dp28
S'comment'
p29
S''
sS'title'
p30
S'Ordered cosmid library of the Mesorhizobium loti MAFF303099 genome for systematic gene disruption and complementation analysis'
p31
sS'consrtm'
p32
S''
sS'journal'
p33
S'Plant Cell Physiol. 43 (12), 1542-1557 (2002)'
p34
sS'location'
p35
(lp36
sS'pubmed_id'
p37
S'12514252'
p38
sS'authors'
p39
S'Hattori,Y., Omori,H., Hanyu,M., Kaseda,N., Mishima,E., Kaneko,T., Tabata,S. and Saeki,K.'
p40
sS'medline_id'
p41
S''
sbag3
(g26
g5
NtRp42
(dp43
g29
S''
sg30
S'A tool kit for systematic marker-less gene disruption and large genome'
p44
sg32
S''
sg33
S'Unpublished'
p45
sg35
(lp46
sg37
S''
sg39
S'Maruya,J., Okabe,S., Abe,T., Mishima,E., Sakamoto,T. and Saeki,K.'
p47
sg41
S''
sbag3
(g26
g5
NtRp48
(dp49
g29
S''
sg30
S'Direct Submission'
p50
sg32
S''
sg33
S"Submitted (11-SEP-2009) Contact:Kazuhiko Saeki Nara Women's University, Department of Biological Sciences, Faculty of Science; Kitauoya Nishimachi, Nara, Nara 630-8506, Japan"
p51
sg35
(lp52
g3
(cBio.SeqFeature
FeatureLocation
p53
g5
NtRp54
(dp55
S'_end'
p56
g3
(cBio.SeqFeature
ExactPosition
p57
g5
NtRp58
(dp59
S'position'
p60
I20392
sS'extension'
p61
I0
sbsS'_start'
p62
g3
(g57
g5
NtRp63
(dp64
g60
I0
sg61
I0
sbsbasg37
S''
sg39
S'Saeki,K.'
p65
sg41
S''
sbasS'accessions'
p66
(lp67
S'AB521037'
p68
asS'data_file_division'
p69
S'SYN'
p70
sS'date'
p71
S'01-MAY-2010'
p72
sS'organism'
p73
S'Cloning vector pKS800'
p74
sS'gi'
p75
S'295443850'
p76
ssS'features'
p77
(lp78
g3
(cBio.SeqFeature
SeqFeature
p79
g5
NtRp80
(dp81
S'ref_db'
p82
NsS'ref'
p83
NsS'sub_features'
p84
(lp85
sS'location_operator'
p86
S''
sS'id'
p87
S'<unknown id>'
p88
sg35
g3
(g53
g5
NtRp89
(dp90
g56
g3
(g57
g5
NtRp91
(dp92
g60
I20392
sg61
I0
sbsg62
g3
(g57
g5
NtRp93
(dp94
g60
I0
sg61
I0
sbsbsS'type'
p95
S'source'
p96
sS'qualifiers'
p97
(dp98
S'note'
p99
(lp100
S'derivative of plasmid RK2'
p101
asS'db_xref'
p102
(lp103
S'taxon:673018'
p104
asS'mol_type'
p105
(lp106
S'other DNA'
p107
asS'organism'
p108
(lp109
S'Cloning vector pKS800'
p110
assS'strand'
p111
I1
sbag3
(g79
g5
NtRp112
(dp113
g82
Nsg83
Nsg84
(lp114
sg86
S''
sg87
g88
sg35
g3
(g53
g5
NtRp115
(dp116
g56
g3
(g57
g5
NtRp117
(dp118
g60
I966
sg61
I0
sbsg62
g3
(g57
g5
NtRp119
(dp120
g60
I348
sg61
I0
sbsbsg95
S'rep_origin'
p121
sg97
(dp122
S'note'
p123
(lp124
S'oriV; incP alpha type origin of replication'
p125
assg111
I1
sbag3
(g79
g5
NtRp126
(dp127
g82
Nsg83
Nsg84
(lp128
sg86
S''
sg87
g88
sg35
g3
(g53
g5
NtRp129
(dp130
g56
g3
(g57
g5
NtRp131
(dp132
g60
I1574
sg61
I0
sbsg62
g3
(g57
g5
NtRp133
(dp134
g60
I1560
sg61
I0
sbsbsg95
S'misc_feature'
p135
sg97
(dp136
S'note'
p137
(lp138
S'bacteriophage lambda cos sequence'
p139
assg111
I-1
sbag3
(g79
g5
NtRp140
(dp141
g82
Nsg83
Nsg84
(lp142
sg86
S''
sg87
g88
sg35
g3
(g53
g5
NtRp143
(dp144
g56
g3
(g57
g5
NtRp145
(dp146
g60
I2360
sg61
I0
sbsg62
g3
(g57
g5
NtRp147
(dp148
g60
I2116
sg61
I0
sbsbsg95
S'misc_feature'
p149
sg97
(dp150
S'note'
p151
(lp152
S'similar to bacteriophage protein ORF2'
p153
assg111
I-1
sbag3
(g79
g5
NtRp154
(dp155
g82
Nsg83
Nsg84
(lp156
sg86
S''
sg87
g88
sg35
g3
(g53
g5
NtRp157
(dp158
g56
g3
(g57
g5
NtRp159
(dp160
g60
I2752
sg61
I0
sbsg62
g3
(g57
g5
NtRp161
(dp162
g60
I2521
sg61
I0
sbsbsg95
S'CDS'
p163
sg97
(dp164
S'product'
p165
(lp166
S'bacteriophage protein ORF1'
p167
asS'codon_start'
p168
(lp169
S'1'
asS'transl_table'
p170
(lp171
S'11'
p172
asS'db_xref'
p173
(lp174
S'GI:295443851'
p175
asS'translation'
p176
(lp177
S'MKILVFINPPGSYMQIETKEMVIFLRDDGISLQYPDGQCAGYGIDGNMLIFMGQSCELFPTKIILHDQRTTNFTHK'
p178
asS'protein_id'
p179
(lp180
S'BAJ06603.1'
p181
assg111
I-1
sbag3
(g79
g5
NtRp182
(dp183
g82
Nsg83
Nsg84
(lp184
sg86
S''
sg87
g88
sg35
g3
(g53
g5
NtRp185
(dp186
g56
g3
(g57
g5
NtRp187
(dp188
g60
I3874
sg61
I0
sbsg62
g3
(g57
g5
NtRp189
(dp190
g60
I3196
sg61
I0
sbsbsg95
S'gene'
p191
sg97
(dp192
S'gene'
p193
(lp194
S'tetR'
p195
assg111
I-1
sbag3
(g79
g5
NtRp196
(dp197
g82
Nsg83
Nsg84
(lp198
sg86
S''
sg87
g88
sg35
g3
(g53
g5
NtRp199
(dp200
g56
g3
(g57
g5
NtRp201
(dp202
g60
I3874
sg61
I0
sbsg62
g3
(g57
g5
NtRp203
(dp204
g60
I3196
sg61
I0
sbsbsg95
S'CDS'
p205
sg97
(dp206
S'product'
p207
(lp208
S'tetracycline resistance protein'
p209
asS'codon_start'
p210
(lp211
S'1'
asS'transl_table'
p212
(lp213
S'11'
p214
asS'db_xref'
p215
(lp216
S'GI:295443852'
p217
asS'translation'
p218
(lp219
S'MFISDKVSSMTKLQPNTVIRAALDLLNEVGVDGLTTRKLAERLGVQQPALYWHFRNKRALLDALAEAMLAENHTHSVPRADDDWRSFLIGNARSFRQALLAYRDGARIHAGTRPGAPQMETADAQLRFLCEAGFSAGDAVNALMTISYFTVGAVLEEQAGDSDAGERGGTVEQAPLSPLLRAAIDAFDEAGPDAAFEQGLAVIVDGLAKRRLVVRNVEGPRKGDD'
p220
asS'gene'
p221
(lp222
S'tetR'
p223
asS'protein_id'
p224
(lp225
S'BAJ06604.1'
p226
assg111
I-1
sbag3
(g79
g5
NtRp227
(dp228
g82
Nsg83
Nsg84
(lp229
sg86
S''
sg87
g88
sg35
g3
(g53
g5
NtRp230
(dp231
g56
g3
(g57
g5
NtRp232
(dp233
g60
I5152
sg61
I0
sbsg62
g3
(g57
g5
NtRp234
(dp235
g60
I3877
sg61
I0
sbsbsg95
S'gene'
p236
sg97
(dp237
S'gene'
p238
(lp239
S'tetA'
p240
assg111
I1
sbag3
(g79
g5
NtRp241
(dp242
g82
Nsg83
Nsg84
(lp243
sg86
S''
sg87
g88
sg35
g3
(g53
g5
NtRp244
(dp245
g56
g3
(g57
g5
NtRp246
(dp247
g60
I5152
sg61
I0
sbsg62
g3
(g57
g5
NtRp248
(dp249
g60
I3877
sg61
I0
sbsbsg95
S'CDS'
p250
sg97
(dp251
S'product'
p252
(lp253
S'tetracycline resistance protein'
p254
asS'codon_start'
p255
(lp256
S'1'
asS'transl_table'
p257
(lp258
S'11'
p259
asS'db_xref'
p260
(lp261
S'GI:295443853'
p262
asS'translation'
p263
(lp264
S'MSTNLSVIKNPRVQSDQRRLVRRPDVKPNIPLIVILSTVALDAVGIGLIMPVLPGLLRDLVHSNDVTAHYGILLALYALVQFACAPVLGALSDRFGRRPILLVSLAGATVDYAIMATAPFLWVLYIGRIVAGITGATGAVAGAYIADITDGDERARHFGFMSACFGFGMVAGPVLGGLMGGFSPHAPFFAAAALNGLNFLTGCFLLPESHKGERRPLRREALNPLASFRWARGMTVVAALMAVFFIMQLVGQVPAALWVIFGEDRFHWDATTIGISLAAFGILHSLAQAMITGPVAARLGERRALMLGMIADGTGYILLAFATRGWMAFPIMVLLASGGIGMPALQAMLSRQVDEERQGQLQGSLAALTSLTSIVGPLLFTAIYAASITTWNGWAWIAGAALYLLCLPALRRGLWSGAGQRADR'
p265
asS'gene'
p266
(lp267
S'tetA'
p268
asS'protein_id'
p269
(lp270
S'BAJ06605.1'
p271
assg111
I1
sbag3
(g79
g5
NtRp272
(dp273
g82
Nsg83
Nsg84
(lp274
sg86
S''
sg87
g88
sg35
g3
(g53
g5
NtRp275
(dp276
g56
g3
(g57
g5
NtRp277
(dp278
g60
I6260
sg61
I0
sbsg62
g3
(g57
g5
NtRp279
(dp280
g60
I5183
sg61
I0
sbsbsg95
S'gene'
p281
sg97
(dp282
S'gene'
p283
(lp284
S'upf16.5'
p285
asS'gene_synonym'
p286
(lp287
S'pecM'
p288
assg111
I-1
sbag3
(g79
g5
NtRp289
(dp290
g82
Nsg83
Nsg84
(lp291
sg86
S''
sg87
g88
sg35
g3
(g53
g5
NtRp292
(dp293
g56
g3
(g57
g5
NtRp294
(dp295
g60
I6260
sg61
I0
sbsg62
g3
(g57
g5
NtRp296
(dp297
g60
I5183
sg61
I0
sbsbsg95
S'CDS'
p298
sg97
(dp299
S'product'
p300
(lp301
S'Upf16.5'
p302
asS'codon_start'
p303
(lp304
S'1'
asS'gene_synonym'
p305
(lp306
S'pecM'
p307
asS'transl_table'
p308
(lp309
S'11'
p310
asS'db_xref'
p311
(lp312
S'GI:295443854'
p313
asS'translation'
p314
(lp315
S'MIKAQIRRLGAADVQDFREIRLSALKKAPEMFGSVYEHEEKKPMEAFAERLRDAVAFGAYIDGEIIGLSVFKQEDGPKDAHKAHLSGVFVEPEQRGRGVAGMLLRALPAGLLLVMIVRQIPTGIWWMRIFILGALNISLFWSLLFISVYRLPGGVAATVGAVQPLMVVFISAALLGSPIRLMAVLGAICGTAGVALLVLTPNAALDPVGVAAGLAGAVSMAFGTVLTRKWQPPVPLLTFTAWQLAAGGLLLVPVALVFDPPIPMPTGTNVLGLAWLGLIGAGLTYFLWFRGISRLEPTVVSLLGFLSPGTAVLLGWLFLDQTLSALQIIGVLLVIGSIWLGQRSNRTPRARIACRKSP'
p316
asS'gene'
p317
(lp318
S'upf16.5'
p319
asS'protein_id'
p320
(lp321
S'BAJ06606.1'
p322
assg111
I-1
sbag3
(g79
g5
NtRp323
(dp324
g82
Nsg83
Nsg84
(lp325
sg86
S''
sg87
g88
sg35
g3
(g53
g5
NtRp326
(dp327
g56
g3
(g57
g5
NtRp328
(dp329
g60
I7573
sg61
I0
sbsg62
g3
(g57
g5
NtRp330
(dp331
g60
I6424
sg61
I0
sbsbsg95
S'gene'
p332
sg97
(dp333
S'gene'
p334
(lp335
S'trfA'
p336
assg111
I-1
sbag3
(g79
g5
NtRp337
(dp338
g82
Nsg83
Nsg84
(lp339
sg86
S''
sg87
g88
sg35
g3
(g53
g5
NtRp340
(dp341
g56
g3
(g57
g5
NtRp342
(dp343
g60
I7573
sg61
I0
sbsg62
g3
(g57
g5
NtRp344
(dp345
g60
I6424
sg61
I0
sbsbsg95
S'CDS'
p346
sg97
(dp347
S'product'
p348
(lp349
S'TrfA'
p350
asS'codon_start'
p351
(lp352
S'1'
asS'transl_table'
p353
(lp354
S'11'
p355
asS'note'
p356
(lp357
S'initiation of vegetative DNA replication'
p358
asS'db_xref'
p359
(lp360
S'GI:295443855'
p361
asS'translation'
p362
(lp363
S'MNRTFDRKAYRQELIDAGFSAEDAETIASRTVMRAPRETFQSVGSMVQQATAKIERDSVQLAPPALPAPSAAVERSRRLEQEAAGLAKSMTIDTRGTMTTKKRKTAGEDLAKQVSEAKQAALLKHTKQQIKEMQLSLFDIAPWPDTMRAMPNDTARSALFTTRNKKIPREALQNKVIFHVNKDVKITYTGVELRADDDELVWQQVLEYAKRTPIGEPITFTFYELCQDLGWSINGRYYTKAEECLSRLQATAMGFTSDRVGHLESVSLLHRFRVLDRGKKTSRCQVLIDEEIVVLFAGDHYTKFIWEKYRKLSPTARRMFDYFSSHREPYPLKLETFRLMCGSDSTRVKKWREQVGEACEELRGSGLVEHAWVNDDLVHCKR'
p364
asS'gene'
p365
(lp366
S'trfA'
p367
asS'protein_id'
p368
(lp369
S'BAJ06607.1'
p370
assg111
I-1
sbag3
(g79
g5
NtRp371
(dp372
g82
Nsg83
Nsg84
(lp373
sg86
S''
sg87
g88
sg35
g3
(g53
g5
NtRp374
(dp375
g56
g3
(g57
g5
NtRp376
(dp377
g60
I7972
sg61
I0
sbsg62
g3
(g57
g5
NtRp378
(dp379
g60
I7621
sg61
I0
sbsbsg95
S'gene'
p380
sg97
(dp381
S'gene'
p382
(lp383
S'ssb'
p384
assg111
I-1
sbag3
(g79
g5
NtRp385
(dp386
g82
Nsg83
Nsg84
(lp387
sg86
S''
sg87
g88
sg35
g3
(g53
g5
NtRp388
(dp389
g56
g3
(g57
g5
NtRp390
(dp391
g60
I7972
sg61
I0
sbsg62
g3
(g57
g5
NtRp392
(dp393
g60
I7621
sg61
I0
sbsbsg95
S'CDS'
p394
sg97
(dp395
S'product'
p396
(lp397
S'single-stranded DNA binding protein'
p398
asS'codon_start'
p399
(lp400
S'1'
asS'transl_table'
p401
(lp402
S'11'
p403
asS'db_xref'
p404
(lp405
S'GI:295443856'
p406
asS'translation'
p407
(lp408
S'MSHNQFQFIGNLTRDTEVRHGNSNKPQAIFDIAVNEEWRNDAGDKQERTDFFRIKCFGSQAEAHGKYLGKGSLVFVQGKIRNTKYEKDGQTVYGTDFIADKVDYLDTKAPGGSNQE'
p409
asS'gene'
p410
(lp411
S'ssb'
p412
asS'protein_id'
p413
(lp414
S'BAJ06608.1'
p415
assg111
I-1
sbag3
(g79
g5
NtRp416
(dp417
g82
Nsg83
Nsg84
(lp418
sg86
S''
sg87
g88
sg35
g3
(g53
g5
NtRp419
(dp420
g56
g3
(g57
g5
NtRp421
(dp422
g60
I8458
sg61
I0
sbsg62
g3
(g57
g5
NtRp423
(dp424
g60
I8071
sg61
I0
sbsbsg95
S'gene'
p425
sg97
(dp426
S'gene'
p427
(lp428
S'trbA'
p429
assg111
I1
sbag3
(g79
g5
NtRp430
(dp431
g82
Nsg83
Nsg84
(lp432
sg86
S''
sg87
g88
sg35
g3
(g53
g5
NtRp433
(dp434
g56
g3
(g57
g5
NtRp435
(dp436
g60
I8458
sg61
I0
sbsg62
g3
(g57
g5
NtRp437
(dp438
g60
I8071
sg61
I0
sbsbsg95
S'CDS'
p439
sg97
(dp440
S'product'
p441
(lp442
S'TrbA'
p443
asS'codon_start'
p444
(lp445
S'1'
asS'transl_table'
p446
(lp447
S'11'
p448
asS'note'
p449
(lp450
S'regulation of tra gene expression'
p451
asS'db_xref'
p452
(lp453
S'GI:295443857'
p454
asS'translation'
p455
(lp456
S'MRGAASAVYNQIFFTNILRLLDERGMTKHELSERAGVSISFLSDLTNGKANPSLKVMEAIADALETPLPLLLESTDLDREALAEIAGHPFKSSVPPGYERISVVLPSHKAFIVKKWGDDTRKKLRGRL'
p457
asS'gene'
p458
(lp459
S'trbA'
p460
asS'protein_id'
p461
(lp462
S'BAJ06609.1'
p463
assg111
I1
sbag3
(g79
g5
NtRp464
(dp465
g82
Nsg83
Nsg84
(lp466
sg86
S''
sg87
g88
sg35
g3
(g53
g5
NtRp467
(dp468
g56
g3
(g57
g5
NtRp469
(dp470
g60
I9688
sg61
I0
sbsg62
g3
(g57
g5
NtRp471
(dp472
g60
I8791
sg61
I0
sbsbsg95
S'gene'
p473
sg97
(dp474
S'gene'
p475
(lp476
S'trbB'
p477
assg111
I1
sbag3
(g79
g5
NtRp478
(dp479
g82
Nsg83
Nsg84
(lp480
sg86
S''
sg87
g88
sg35
g3
(g53
g5
NtRp481
(dp482
g56
g3
(g57
g5
NtRp483
(dp484
g60
I9688
sg61
I0
sbsg62
g3
(g57
g5
NtRp485
(dp486
g60
I8791
sg61
I0
sbsbsg95
S'CDS'
p487
sg97
(dp488
S'product'
p489
(lp490
S'TrbB'
p491
asS'codon_start'
p492
(lp493
S'1'
asS'transl_table'
p494
(lp495
S'11'
p496
asS'note'
p497
(lp498
S'ATPase; autophosphorylase'
p499
asS'db_xref'
p500
(lp501
S'GI:295443858'
p502
asS'translation'
p503
(lp504
S'MGADLLAALNDPKTVEVMLNADGKVWHERLGEPMRYICDMRPSQSQAIIETVAGFHGKEVTRHSPILEGEFPLDGSRFAGQLPPVVAAPTFAIRKRAVAIFTLEQYVEAGIMTREQYEVIKSAVAAHRNILVIGGTGSGKTTLVNAIINEMVAFNPSERVVIIEDTGEIQCAAENAVQYHTSIDVSMTLLLKTTLRMRPDRILVGEVRGPEALDLLMAWNTGHEGGAATLHANNPKAGLSRLAMLISMHPDSPKPIEPLIGEAVHVVVHIARTPSGRRVQEILEVLGYENGQYITKTL'
p505
asS'gene'
p506
(lp507
S'trbB'
p508
asS'protein_id'
p509
(lp510
S'BAJ06610.1'
p511
assg111
I1
sbag3
(g79
g5
NtRp512
(dp513
g82
Nsg83
Nsg84
(lp514
sg86
S''
sg87
g88
sg35
g3
(g53
g5
NtRp515
(dp516
g56
g3
(g57
g5
NtRp517
(dp518
g60
I10138
sg61
I0
sbsg62
g3
(g57
g5
NtRp519
(dp520
g60
I9700
sg61
I0
sbsbsg95
S'gene'
p521
sg97
(dp522
S'gene'
p523
(lp524
S'trbC'
p525
assg111
I1
sbag3
(g79
g5
NtRp526
(dp527
g82
Nsg83
Nsg84
(lp528
sg86
S''
sg87
g88
sg35
g3
(g53
g5
NtRp529
(dp530
g56
g3
(g57
g5
NtRp531
(dp532
g60
I10138
sg61
I0
sbsg62
g3
(g57
g5
NtRp533
(dp534
g60
I9700
sg61
I0
sbsbsg95
S'CDS'
p535
sg97
(dp536
S'product'
p537
(lp538
S'TrbC'
p539
asS'codon_start'
p540
(lp541
S'1'
asS'transl_table'
p542
(lp543
S'11'
p544
asS'note'
p545
(lp546
S'putatively involved in pilus biosynthesis'
p547
asS'db_xref'
p548
(lp549
S'GI:295443859'
p550
asS'translation'
p551
(lp552
S'MTTAVPFRLTMNRGILFYLAVFFVLALALSAHPAMASEGTGGSLPYESWLTNLRNSVTGPVAFALSIIGIVVAGGVLIFGGELNAFFRTLIFLVLVMALLVGAQNVMSTFFGRGAEIAALGNGALHQVQVAAADAVRAVAAGRLA'
p553
asS'gene'
p554
(lp555
S'trbC'
p556
asS'protein_id'
p557
(lp558
S'BAJ06611.1'
p559
assg111
I1
sbag3
(g79
g5
NtRp560
(dp561
g82
Nsg83
Nsg84
(lp562
sg86
S''
sg87
g88
sg35
g3
(g53
g5
NtRp563
(dp564
g56
g3
(g57
g5
NtRp565
(dp566
g60
I10452
sg61
I0
sbsg62
g3
(g57
g5
NtRp567
(dp568
g60
I10140
sg61
I0
sbsbsg95
S'gene'
p569
sg97
(dp570
S'gene'
p571
(lp572
S'trbD'
p573
assg111
I1
sbag3
(g79
g5
NtRp574
(dp575
g82
Nsg83
Nsg84
(lp576
sg86
S''
sg87
g88
sg35
g3
(g53
g5
NtRp577
(dp578
g56
g3
(g57
g5
NtRp579
(dp580
g60
I10452
sg61
I0
sbsg62
g3
(g57
g5
NtRp581
(dp582
g60
I10140
sg61
I0
sbsbsg95
S'CDS'
p583
sg97
(dp584
S'product'
p585
(lp586
S'TrbD'
p587
asS'codon_start'
p588
(lp589
S'1'
asS'transl_table'
p590
(lp591
S'11'
p592
asS'note'
p593
(lp594
S'contains a bacterial leucine zipper motif'
p595
asS'db_xref'
p596
(lp597
S'GI:295443860'
p598
asS'translation'
p599
(lp600
S'MALRTIPIRRAGNRENLFMGGDRELVMFSGLMAFALIFSAQELRATVVGLILWFGALYAFRIMAKADPKMRFVYLRHRRYKPYYPARSTPFRENTNSQGKQYR'
p601
asS'gene'
p602
(lp603
S'trbD'
p604
asS'protein_id'
p605
(lp606
S'BAJ06612.1'
p607
assg111
I1
sbag3
(g79
g5
NtRp608
(dp609
g82
Nsg83
Nsg84
(lp610
sg86
S''
sg87
g88
sg35
g3
(g53
g5
NtRp611
(dp612
g56
g3
(g57
g5
NtRp613
(dp614
g60
I10856
sg61
I0
sbsg62
g3
(g57
g5
NtRp615
(dp616
g60
I10448
sg61
I0
sbsbsg95
S'gene'
p617
sg97
(dp618
S'gene'
p619
(lp620
S'trbE'
p621
assg111
I1
sbag3
(g79
g5
NtRp622
(dp623
g82
Nsg83
Nsg84
(lp624
sg86
S''
sg87
g88
sg35
g3
(g53
g5
NtRp625
(dp626
g56
g3
(g57
g5
NtRp627
(dp628
g60
I10856
sg61
I0
sbsg62
g3
(g57
g5
NtRp629
(dp630
g60
I10448
sg61
I0
sbsbsg95
S'misc_feature'
p631
sg97
(dp632
S'note'
p633
(lp634
S'truncated TrbE; involved in mating pair formation;truncated due to vector construction'
p635
asS'gene'
p636
(lp637
S'trbE'
p638
assg111
I1
sbag3
(g79
g5
NtRp639
(dp640
g82
Nsg83
Nsg84
(lp641
sg86
S''
sg87
g88
sg35
g3
(g53
g5
NtRp642
(dp643
g56
g3
(g57
g5
NtRp644
(dp645
g60
I11354
sg61
I0
sbsg62
g3
(g57
g5
NtRp646
(dp647
g60
I10982
sg61
I0
sbsbsg95
S'gene'
p648
sg97
(dp649
S'gene'
p650
(lp651
S'traJ'
p652
assg111
I-1
sbag3
(g79
g5
NtRp653
(dp654
g82
Nsg83
Nsg84
(lp655
sg86
S''
sg87
g88
sg35
g3
(g53
g5
NtRp656
(dp657
g56
g3
(g57
g5
NtRp658
(dp659
g60
I11354
sg61
I0
sbsg62
g3
(g57
g5
NtRp660
(dp661
g60
I10982
sg61
I0
sbsbsg95
S'CDS'
p662
sg97
(dp663
S'product'
p664
(lp665
S'TraJ'
p666
asS'codon_start'
p667
(lp668
S'1'
asS'transl_table'
p669
(lp670
S'11'
p671
asS'note'
p672
(lp673
S'OriT-recognizing protein'
p674
asS'db_xref'
p675
(lp676
S'GI:295443861'
p677
asS'translation'
p678
(lp679
S'MADETKPTRKGSPPIKVYCLPDERRAIEEKAAAAGMSLSAYLLAVGQGYKITGVVDYEHVRELARINGDLGRLGGLLKLWLTDDPRTARFGDATILALLAKIEEKQDELGKVMMGVVRPRAEP'
p680
asS'gene'
p681
(lp682
S'traJ'
p683
asS'protein_id'
p684
(lp685
S'BAJ06613.1'
p686
assg111
I-1
sbag3
(g79
g5
NtRp687
(dp688
g82
Nsg83
Nsg84
(lp689
sg86
S''
sg87
g88
sg35
g3
(g53
g5
NtRp690
(dp691
g56
g3
(g57
g5
NtRp692
(dp693
g60
I11497
sg61
I0
sbsg62
g3
(g57
g5
NtRp694
(dp695
g60
I11385
sg61
I0
sbsbsg95
S'rep_origin'
p696
sg97
(dp697
S'note'
p698
(lp699
S'oriT; IncP alpha type origin of transfer'
p700
assg111
I1
sbag3
(g79
g5
NtRp701
(dp702
g82
Nsg83
Nsg84
(lp703
sg86
S''
sg87
g88
sg35
g3
(g53
g5
NtRp704
(dp705
g56
g3
(g57
g5
NtRp706
(dp707
g60
I12126
sg61
I0
sbsg62
g3
(g57
g5
NtRp708
(dp709
g60
I11721
sg61
I0
sbsbsg95
S'gene'
p710
sg97
(dp711
S'gene'
p712
(lp713
S'traK'
p714
assg111
I1
sbag3
(g79
g5
NtRp715
(dp716
g82
Nsg83
Nsg84
(lp717
sg86
S''
sg87
g88
sg35
g3
(g53
g5
NtRp718
(dp719
g56
g3
(g57
g5
NtRp720
(dp721
g60
I12126
sg61
I0
sbsg62
g3
(g57
g5
NtRp722
(dp723
g60
I11721
sg61
I0
sbsbsg95
S'CDS'
p724
sg97
(dp725
S'product'
p726
(lp727
S'TraK'
p728
asS'codon_start'
p729
(lp730
S'1'
asS'transl_table'
p731
(lp732
S'11'
p733
asS'db_xref'
p734
(lp735
S'GI:295443862'
p736
asS'translation'
p737
(lp738
S'MPKSYTDELAEWVESRAAKKRRRDEAAVAFLAVRADVEAALASGYALVTIWEHMRETGKVKFSYETFRSHARRHIKAKPADVPAPQAKAAEPAPAPKTPEPRRPKQGGKAEKPAPAAAPTGFTFNPTPDKKDLL'
p739
asS'gene'
p740
(lp741
S'traK'
p742
asS'protein_id'
p743
(lp744
S'BAJ06614.1'
p745
assg111
I1
sbag3
(g79
g5
NtRp746
(dp747
g82
Nsg83
Nsg84
(lp748
sg86
S''
sg87
g88
sg35
g3
(g53
g5
NtRp749
(dp750
g56
g3
(g57
g5
NtRp751
(dp752
g60
I12851
sg61
I0
sbsg62
g3
(g57
g5
NtRp753
(dp754
g60
I12125
sg61
I0
sbsbsg95
S'gene'
p755
sg97
(dp756
S'gene'
p757
(lp758
S'traL'
p759
assg111
I1
sbag3
(g79
g5
NtRp760
(dp761
g82
Nsg83
Nsg84
(lp762
sg86
S''
sg87
g88
sg35
g3
(g53
g5
NtRp763
(dp764
g56
g3
(g57
g5
NtRp765
(dp766
g60
I12851
sg61
I0
sbsg62
g3
(g57
g5
NtRp767
(dp768
g60
I12125
sg61
I0
sbsbsg95
S'CDS'
p769
sg97
(dp770
S'product'
p771
(lp772
S'TraL'
p773
asS'codon_start'
p774
(lp775
S'1'
asS'transl_table'
p776
(lp777
S'11'
p778
asS'note'
p779
(lp780
S'contains an ATP/GTP binding site motifA'
p781
asS'db_xref'
p782
(lp783
S'GI:295443863'
p784
asS'translation'
p785
(lp786
S'MAKIHMVLQGKGGVGKSAIAAIIAQYKMDKGQTPLCIDTDPVNATFEGYKALNVRRLNIMAGDEINSRNFDTLVELIAPTKDDVVIDNGASSFVPLSHYLISNQVPALLQEMGHELVIHTVVTGGQALLDTVSGFAQLASQFPAEALFVVWLNPYWGPIEHEGKSFEQMKAYTANKARVSSIIQIPALKEETYGRDFSDMLQERLTFDQALADESLTIMTRQRLKIVRRGLFEQLDAAAVL'
p787
asS'gene'
p788
(lp789
S'traL'
p790
asS'protein_id'
p791
(lp792
S'BAJ06615.1'
p793
assg111
I1
sbag3
(g79
g5
NtRp794
(dp795
g82
Nsg83
Nsg84
(lp796
sg86
S''
sg87
g88
sg35
g3
(g53
g5
NtRp797
(dp798
g56
g3
(g57
g5
NtRp799
(dp800
g60
I13285
sg61
I0
sbsg62
g3
(g57
g5
NtRp801
(dp802
g60
I12847
sg61
I0
sbsbsg95
S'gene'
p803
sg97
(dp804
S'gene'
p805
(lp806
S'traM'
p807
assg111
I1
sbag3
(g79
g5
NtRp808
(dp809
g82
Nsg83
Nsg84
(lp810
sg86
S''
sg87
g88
sg35
g3
(g53
g5
NtRp811
(dp812
g56
g3
(g57
g5
NtRp813
(dp814
g60
I13285
sg61
I0
sbsg62
g3
(g57
g5
NtRp815
(dp816
g60
I12847
sg61
I0
sbsbsg95
S'CDS'
p817
sg97
(dp818
S'product'
p819
(lp820
S'TraM'
p821
asS'codon_start'
p822
(lp823
S'1'
asS'transl_table'
p824
(lp825
S'11'
p826
asS'db_xref'
p827
(lp828
S'GI:295443864'
p829
asS'translation'
p830
(lp831
S'MSDQIEELIREIAAKHGIAVGRDDPVLILHTINARLMADSAAKQEEILAAFKEELEGIAHRWGEDAKAKAERMLNAALAASKDAMAKVMKDSAAQAAEAIRREIDDGLGRQLAAKVADARRVAMMNMIAGGMVLFAAALVVWASL'
p832
asS'gene'
p833
(lp834
S'traM'
p835
asS'protein_id'
p836
(lp837
S'BAJ06616.1'
p838
assg111
I1
sbag3
(g79
g5
NtRp839
(dp840
g82
Nsg83
Nsg84
(lp841
sg86
S''
sg87
g88
sg35
g3
(g53
g5
NtRp842
(dp843
g56
g3
(g57
g5
NtRp844
(dp845
g60
I14633
sg61
I0
sbsg62
g3
(g57
g5
NtRp846
(dp847
g60
I13337
sg61
I0
sbsbsg95
S'gene'
p848
sg97
(dp849
S'gene'
p850
(lp851
S'traN'
p852
assg111
I-1
sbag3
(g79
g5
NtRp853
(dp854
g82
Nsg83
Nsg84
(lp855
sg86
S''
sg87
g88
sg35
g3
(g53
g5
NtRp856
(dp857
g56
g3
(g57
g5
NtRp858
(dp859
g60
I14633
sg61
I0
sbsg62
g3
(g57
g5
NtRp860
(dp861
g60
I13337
sg61
I0
sbsbsg95
S'CDS'
p862
sg97
(dp863
S'product'
p864
(lp865
S'TraN'
p866
asS'codon_start'
p867
(lp868
S'1'
asS'transl_table'
p869
(lp870
S'11'
p871
asS'db_xref'
p872
(lp873
S'GI:295443865'
p874
asS'translation'
p875
(lp876
S'MVRNGDLGSLTNEPEYQAAKQGDAEAALNLVERLISDDTVAQLKTLIGDDKPRIVPVLAVEAAGNNKIPAMMAVVLADRLGLEVETDIVQREKVARTGAGSDHRLAFNPTFEGEVIPGQKYIVVDDTLTMGGTIASLRGYIENNGGKVMAASVMTAHEGALDLAVKPKMLAGINEKHGPAMDAFWKETFGYGIDRLTQGEAGHLRAAPSVDAIRDRIAAARNEAVNRVGASRTATTARAGQQQSPAVKQSSGNSGEDLLQAAQEAETEQQALLESAPIEQTYQQTLALYVQAKHDQVERIEDRLEQLVDRQQARLQQLQSNAPGLLSLPRTKAAWQQQQAQQQARLQTLHTRLDMVREIKEGMGIHAPKIEELATRKMRAEHPELAGDWDSMREAARRHQALMRKQEQEKKQAQERERGRSQSLGLSNKPS'
p877
asS'gene'
p878
(lp879
S'traN'
p880
asS'protein_id'
p881
(lp882
S'BAJ06617.1'
p883
assg111
I-1
sbag3
(g79
g5
NtRp884
(dp885
g82
Nsg83
Nsg84
(lp886
sg86
S''
sg87
g88
sg35
g3
(g53
g5
NtRp887
(dp888
g56
g3
(g57
g5
NtRp889
(dp890
g60
I15060
sg61
I0
sbsg62
g3
(g57
g5
NtRp891
(dp892
g60
I14712
sg61
I0
sbsbsg95
S'gene'
p893
sg97
(dp894
S'gene'
p895
(lp896
S'traO'
p897
assg111
I-1
sbag3
(g79
g5
NtRp898
(dp899
g82
Nsg83
Nsg84
(lp900
sg86
S''
sg87
g88
sg35
g3
(g53
g5
NtRp901
(dp902
g56
g3
(g57
g5
NtRp903
(dp904
g60
I15060
sg61
I0
sbsg62
g3
(g57
g5
NtRp905
(dp906
g60
I14712
sg61
I0
sbsbsg95
S'CDS'
p907
sg97
(dp908
S'product'
p909
(lp910
S'TraO'
p911
asS'codon_start'
p912
(lp913
S'1'
asS'transl_table'
p914
(lp915
S'11'
p916
asS'db_xref'
p917
(lp918
S'GI:295443866'
p919
asS'translation'
p920
(lp921
S'MKHRLLVMNGQRIVQTENQGAWTNQKVDKAGALKPGIYNIYMAQKADKSQRHDGSIVHADSGSIYQQVGKNFVMHARSDFDKVPEIGSAKSITYDASGKAQVSAESVKLSRGRTR'
p922
asS'gene'
p923
(lp924
S'traO'
p925
asS'protein_id'
p926
(lp927
S'BAJ06618.1'
p928
assg111
I-1
sbag3
(g79
g5
NtRp929
(dp930
g82
Nsg83
Nsg84
(lp931
sg86
S''
sg87
g88
sg35
g3
(g53
g5
NtRp932
(dp933
g56
g3
(g57
g5
NtRp934
(dp935
g60
I16144
sg61
I0
sbsg62
g3
(g57
g5
NtRp936
(dp937
g60
I15217
sg61
I0
sbsbsg95
S'gene'
p938
sg97
(dp939
S'gene'
p940
(lp941
S'kfrA'
p942
assg111
I-1
sbag3
(g79
g5
NtRp943
(dp944
g82
Nsg83
Nsg84
(lp945
sg86
S''
sg87
g88
sg35
g3
(g53
g5
NtRp946
(dp947
g56
g3
(g57
g5
NtRp948
(dp949
g60
I16144
sg61
I0
sbsg62
g3
(g57
g5
NtRp950
(dp951
g60
I15217
sg61
I0
sbsbsg95
S'CDS'
p952
sg97
(dp953
S'product'
p954
(lp955
S'KfrA'
p956
asS'codon_start'
p957
(lp958
S'1'
asS'transl_table'
p959
(lp960
S'11'
p961
asS'note'
p962
(lp963
S'regulation of kfrA transcription'
p964
asS'db_xref'
p965
(lp966
S'GI:295443867'
p967
asS'translation'
p968
(lp969
S'MELNKETRDRIFAAADELFEQGDRENFPTVDAVRKAARVNMNDASAGMREWRRQRTAQAAPLAVQVPDAVQQAGNQAVAALWQAAQALANESLQAAQAGWDRERNELEAVRGELADAFEAQARELEEAQARVTLLEQQAAEAAELAARQRQALAEARTALAGAEQRAALATQRADEVERRAQELRAELDYAHQDARAFKEESRKTLDAANQEMQALRGERDATRREAESLRTELAAVKAKAQADAEAHQEQRKLAAQEAARQAERFTTVQAERDEARQEAKAAQEEAAMLRGRLDAETSGRKHKAGGK'
p970
asS'gene'
p971
(lp972
S'kfrA'
p973
asS'protein_id'
p974
(lp975
S'BAJ06619.1'
p976
assg111
I-1
sbag3
(g79
g5
NtRp977
(dp978
g82
Nsg83
Nsg84
(lp979
sg86
S''
sg87
g88
sg35
g3
(g53
g5
NtRp980
(dp981
g56
g3
(g57
g5
NtRp982
(dp983
g60
I16857
sg61
I0
sbsg62
g3
(g57
g5
NtRp984
(dp985
g60
I16329
sg61
I0
sbsbsg95
S'gene'
p986
sg97
(dp987
S'gene'
p988
(lp989
S'korG'
p990
assg111
I-1
sbag3
(g79
g5
NtRp991
(dp992
g82
Nsg83
Nsg84
(lp993
sg86
S''
sg87
g88
sg35
g3
(g53
g5
NtRp994
(dp995
g56
g3
(g57
g5
NtRp996
(dp997
g60
I16857
sg61
I0
sbsg62
g3
(g57
g5
NtRp998
(dp999
g60
I16329
sg61
I0
sbsbsg95
S'CDS'
p1000
sg97
(dp1001
S'product'
p1002
(lp1003
S'KorG'
p1004
asS'codon_start'
p1005
(lp1006
S'1'
asS'transl_table'
p1007
(lp1008
S'11'
p1009
asS'note'
p1010
(lp1011
S'histone-like protein; transcriptional regulator'
p1012
asS'db_xref'
p1013
(lp1014
S'GI:295443868'
p1015
asS'translation'
p1016
(lp1017
S'MTDEQKKRLLMLQAIRRSIQAMRRGVSGPDSFKGWLTGIGIIAAGFLVGELLPSPAPGVGLVVPGACIAGFVVGCWLNRKGRSWPTAIYDQLARYQPLNERAYRDLQETVKERGLDCDAVMEWTYIEQAEFMPLVPTREDLARDKFLTATRADRAEDDARARFVVLHPKKRGPDA'
p1018
asS'gene'
p1019
(lp1020
S'korG'
p1021
asS'protein_id'
p1022
(lp1023
S'BAJ06620.1'
p1024
assg111
I-1
sbag3
(g79
g5
NtRp1025
(dp1026
g82
Nsg83
Nsg84
(lp1027
sg86
S''
sg87
g88
sg35
g3
(g53
g5
NtRp1028
(dp1029
g56
g3
(g57
g5
NtRp1030
(dp1031
g60
I17370
sg61
I0
sbsg62
g3
(g57
g5
NtRp1032
(dp1033
g60
I16866
sg61
I0
sbsbsg95
S'gene'
p1034
sg97
(dp1035
S'gene'
p1036
(lp1037
S'korF'
p1038
assg111
I-1
sbag3
(g79
g5
NtRp1039
(dp1040
g82
Nsg83
Nsg84
(lp1041
sg86
S''
sg87
g88
sg35
g3
(g53
g5
NtRp1042
(dp1043
g56
g3
(g57
g5
NtRp1044
(dp1045
g60
I17370
sg61
I0
sbsg62
g3
(g57
g5
NtRp1046
(dp1047
g60
I16866
sg61
I0
sbsbsg95
S'CDS'
p1048
sg97
(dp1049
S'product'
p1050
(lp1051
S'KorF'
p1052
asS'codon_start'
p1053
(lp1054
S'1'
asS'transl_table'
p1055
(lp1056
S'11'
p1057
asS'note'
p1058
(lp1059
S'histone-like protein; transcriptional regulator'
p1060
asS'db_xref'
p1061
(lp1062
S'GI:295443869'
p1063
asS'translation'
p1064
(lp1065
S'MNPMLFYIAGGVGAALLLVSAIMLFKLREPKKEHRPQRKAAAPTPQPVDNELLRTFRRPSQASQPEPSTTPPARRTAPPSSEQSRGNDGDFVTSALVAGATNSTMLGYLAGGSLTGAMLGDALRPDTPSAAFADPSPCFGSSDTDSGWTDTGSSCDFSSSDTDTNNW'
p1066
asS'gene'
p1067
(lp1068
S'korF'
p1069
asS'protein_id'
p1070
(lp1071
S'BAJ06621.1'
p1072
assg111
I-1
sbag3
(g79
g5
NtRp1073
(dp1074
g82
Nsg83
Nsg84
(lp1075
sg86
S''
sg87
g88
sg35
g3
(g53
g5
NtRp1076
(dp1077
g56
g3
(g57
g5
NtRp1078
(dp1079
g60
I18517
sg61
I0
sbsg62
g3
(g57
g5
NtRp1080
(dp1081
g60
I17440
sg61
I0
sbsbsg95
S'gene'
p1082
sg97
(dp1083
S'gene'
p1084
(lp1085
S'korB'
p1086
assg111
I-1
sbag3
(g79
g5
NtRp1087
(dp1088
g82
Nsg83
Nsg84
(lp1089
sg86
S''
sg87
g88
sg35
g3
(g53
g5
NtRp1090
(dp1091
g56
g3
(g57
g5
NtRp1092
(dp1093
g60
I18517
sg61
I0
sbsg62
g3
(g57
g5
NtRp1094
(dp1095
g60
I17440
sg61
I0
sbsbsg95
S'CDS'
p1096
sg97
(dp1097
S'product'
p1098
(lp1099
S'KorB'
p1100
asS'codon_start'
p1101
(lp1102
S'1'
asS'transl_table'
p1103
(lp1104
S'11'
p1105
asS'note'
p1106
(lp1107
S'involved in regulation of gene expression'
p1108
asS'db_xref'
p1109
(lp1110
S'GI:295443870'
p1111
asS'translation'
p1112
(lp1113
S'MTAAQAKTTKKNTAAAAQEAAGAAQPSGLGLDSIGDLSSLLDAPAASQGGSGPIELDLDLIDEDPHQPRTADNPGFSPESIAEIGATIKERGVKSPISVRENQEQPGRYIINHGARRYRGSKWAGKKSIPAFIDNDYNEADQVIENLQRNELTPREIADFIGRELAKGKKKGDIAKEIGKSPAFITQHVTLLDLPEKIADAFNTGRVRDVTVVNELVTAFKKRPEEVEAWLDDDTQEITRGTVKLLREFLDEKGRDPNTVDAFNGQTDAERDAEAGDGQDGEDGDQDGKDAKEKGAKEPDPDKLKKAIVQVEHDERPARLILNRRPPAEGYAWLKYEDDGQEFEANLADVKLVALIEG'
p1114
asS'gene'
p1115
(lp1116
S'korB'
p1117
asS'protein_id'
p1118
(lp1119
S'BAJ06622.1'
p1120
assg111
I-1
sbag3
(g79
g5
NtRp1121
(dp1122
g82
Nsg83
Nsg84
(lp1123
sg86
S''
sg87
g88
sg35
g3
(g53
g5
NtRp1124
(dp1125
g56
g3
(g57
g5
NtRp1126
(dp1127
g60
I19608
sg61
I0
sbsg62
g3
(g57
g5
NtRp1128
(dp1129
g60
I18513
sg61
I0
sbsbsg95
S'gene'
p1130
sg97
(dp1131
S'gene'
p1132
(lp1133
S'incC1'
p1134
assg111
I-1
sbag3
(g79
g5
NtRp1135
(dp1136
g82
Nsg83
Nsg84
(lp1137
sg86
S''
sg87
g88
sg35
g3
(g53
g5
NtRp1138
(dp1139
g56
g3
(g57
g5
NtRp1140
(dp1141
g60
I19608
sg61
I0
sbsg62
g3
(g57
g5
NtRp1142
(dp1143
g60
I18513
sg61
I0
sbsbsg95
S'CDS'
p1144
sg97
(dp1145
S'product'
p1146
(lp1147
S'IncC1'
p1148
asS'codon_start'
p1149
(lp1150
S'1'
asS'transl_table'
p1151
(lp1152
S'11'
p1153
asS'note'
p1154
(lp1155
S'involved in plasmid partitioning and stable maintenance'
p1156
asS'db_xref'
p1157
(lp1158
S'GI:295443871'
p1159
asS'translation'
p1160
(lp1161
S'MGVIHEETAYRKPVPGGDPGAGSGAADHRDSAGRLSRWEATGDVRNVAGTDQGRSVASGASRVGRVRGQELARGVRAGNGGSAGTSGVHRPEVGSGRQEKTGNQTMKTLVTANQKGGVGKTSTLVHLAFDFFERGLRVAVIDLDPQGNASYTLKDFATGLHASKLFGAVPAGGWTETAPAAGDGQAARLALIESNPVLANAERLSLDDARELFGANIKALANQGFDVCLIDTAPTLGVGLAAALFAADYVLSPIELEAYSIQGIKKMVTTIANVRQKNAKLQFLGMVPSKVDARNPRHARHQAELLAAYPKMMIPATVGLRSSIADALASGVPVWKIKKTAARKASKEVRALADYVFTKMEISQ'
p1162
asS'gene'
p1163
(lp1164
S'incC1'
p1165
asS'protein_id'
p1166
(lp1167
S'BAJ06623.1'
p1168
assg111
I-1
sbag3
(g79
g5
NtRp1169
(dp1170
g82
Nsg83
Nsg84
(lp1171
sg86
S''
sg87
g88
sg35
g3
(g53
g5
NtRp1172
(dp1173
g56
g3
(g57
g5
NtRp1174
(dp1175
g60
I19293
sg61
I0
sbsg62
g3
(g57
g5
NtRp1176
(dp1177
g60
I18513
sg61
I0
sbsbsg95
S'gene'
p1178
sg97
(dp1179
S'gene'
p1180
(lp1181
S'incC2'
p1182
assg111
I-1
sbag3
(g79
g5
NtRp1183
(dp1184
g82
Nsg83
Nsg84
(lp1185
sg86
S''
sg87
g88
sg35
g3
(g53
g5
NtRp1186
(dp1187
g56
g3
(g57
g5
NtRp1188
(dp1189
g60
I19293
sg61
I0
sbsg62
g3
(g57
g5
NtRp1190
(dp1191
g60
I18513
sg61
I0
sbsbsg95
S'CDS'
p1192
sg97
(dp1193
S'product'
p1194
(lp1195
S'IncC2'
p1196
asS'codon_start'
p1197
(lp1198
S'1'
asS'transl_table'
p1199
(lp1200
S'11'
p1201
asS'note'
p1202
(lp1203
S'involved in plasmid partitioning and stable maintenance'
p1204
asS'db_xref'
p1205
(lp1206
S'GI:295443872'
p1207
asS'translation'
p1208
(lp1209
S'MKTLVTANQKGGVGKTSTLVHLAFDFFERGLRVAVIDLDPQGNASYTLKDFATGLHASKLFGAVPAGGWTETAPAAGDGQAARLALIESNPVLANAERLSLDDARELFGANIKALANQGFDVCLIDTAPTLGVGLAAALFAADYVLSPIELEAYSIQGIKKMVTTIANVRQKNAKLQFLGMVPSKVDARNPRHARHQAELLAAYPKMMIPATVGLRSSIADALASGVPVWKIKKTAARKASKEVRALADYVFTKMEISQ'
p1210
asS'gene'
p1211
(lp1212
S'incC2'
p1213
asS'protein_id'
p1214
(lp1215
S'BAJ06624.1'
p1216
assg111
I-1
sbag3
(g79
g5
NtRp1217
(dp1218
g82
Nsg83
Nsg84
(lp1219
sg86
S''
sg87
g88
sg35
g3
(g53
g5
NtRp1220
(dp1221
g56
g3
(g57
g5
NtRp1222
(dp1223
g60
I19595
sg61
I0
sbsg62
g3
(g57
g5
NtRp1224
(dp1225
g60
I19289
sg61
I0
sbsbsg95
S'gene'
p1226
sg97
(dp1227
S'gene'
p1228
(lp1229
S'korA'
p1230
assg111
I-1
sbag3
(g79
g5
NtRp1231
(dp1232
g82
Nsg83
Nsg84
(lp1233
sg86
S''
sg87
g88
sg35
g3
(g53
g5
NtRp1234
(dp1235
g56
g3
(g57
g5
NtRp1236
(dp1237
g60
I19595
sg61
I0
sbsg62
g3
(g57
g5
NtRp1238
(dp1239
g60
I19289
sg61
I0
sbsbsg95
S'CDS'
p1240
sg97
(dp1241
S'product'
p1242
(lp1243
S'KorA'
p1244
asS'codon_start'
p1245
(lp1246
S'1'
asS'transl_table'
p1247
(lp1248
S'11'
p1249
asS'note'
p1250
(lp1251
S'involved in regulation of gene expression'
p1252
asS'db_xref'
p1253
(lp1254
S'GI:295443873'
p1255
asS'translation'
p1256
(lp1257
S'MKKRLTESQFQEAIQGLEVGQQTIEIARGVLVDGKPQATFATSLGLTRGAVSQAVHRVWAAFEDKNLPEGYARVTAVLPEHQAYIVRKWEADAKKKQETKR'
p1258
asS'gene'
p1259
(lp1260
S'korA'
p1261
asS'protein_id'
p1262
(lp1263
S'BAJ06625.1'
p1264
assg111
I-1
sbag3
(g79
g5
NtRp1265
(dp1266
g82
Nsg83
Nsg84
(lp1267
sg86
S''
sg87
g88
sg35
g3
(g53
g5
NtRp1268
(dp1269
g56
g3
(g57
g5
NtRp1270
(dp1271
g60
I20392
sg61
I0
sbsg62
g3
(g57
g5
NtRp1272
(dp1273
g60
I20354
sg61
I0
sbsbsg95
S'misc_feature'
p1274
sg97
(dp1275
S'note'
p1276
(lp1277
S'MCS'
p1278
assg111
I1
sbasS'_seq'
p1279
g3
(cBio.Seq
Seq
p1280
g5
NtRp1281
(dp1282
S'alphabet'
p1283
(iBio.Alphabet.IUPAC
IUPACAmbiguousDNA
p1284
(dp1285
bsS'_data'
p1286
S'TTCACCCCCGAACACGAGCACGGCACCCGCGACCACTATGCCAAGAATGCCCAAGGTAAAAATTGCCGGCCCCGCCATGAAGTCCGTGAATGCCCCGACGGCCGAAGTGAAGGGCAGGCCGCCACCCAGGCCGCCGCCCTCACTGCCCGGCACCTGGTCGCTGAATGTCGATGCCAGCACCTGCGGCACGTCAATGCTTCCGGGCGTCGCGCTCGGGCTGATCGCCCATCCCGTTACTGCCCCGATCCCGGCAATGGCAAGGACTGCCAGCGCTGCCATTTTTGGGGTGAGGCCGTTCGCGGCCGAGGGGCGCAGCCCCTGGGGGGATGGGAGGCCCGCGTTAGCGGGCCGGGAGGGTTCGAGAAGGGGGGGCACCCCCCTTCGGCGTGCGCGGTCACGCGCACAGGGCGCAGCCCTGGTTAAAAACAAGGTTTATAAATATTGGTTTAAAAGCAGGTTAAAAGACAGGTTAGCGGTGGCCGAAAAACGGGCGGAAACCCTTGCAAATGCTGGATTTTCTGCCTGTGGACAGCCCCTCAAATGTCAATAGGTGCGCCCCTCATCTGTCAGCACTCTGCCCCTCAAGTGTCAAGGATCGCGCCCCTCATCTGTCAGTAGTCGCGCCCCTCAAGTGTCAATACCGCAGGGCACTTATCCCCAGGCTTGTCCACATCATCTGTGGGAAACTCGCGTAAAATCAGGCGTTTTCGCCGATTTGCGAGGCTGGCCAGCTCCACGTCGCCGGCCGAAATCGAGCCTGCCCCTCATCTGTCAACGCCGCGCCGGGTGAGTCGGCCCCTCAAGTGTCAACGTCCGCCCCTCATCTGTCAGTGAGGGCCAAGTTTTCCGCGAGGTATCCACAACGCCGGCGGCCGCGGTGTCTCGCACACGGCTTCGACGGCGTTTCTGGCGCGTTTGCAGGGCCATAGACGGCCGCCAGCCCAGCGGCGAGGGCAACCAGCCCGGTGAGCGTCGGAAAGGCGCTGGAAGCCCCGTAGCGACGCGGAGAGGGGCGAGACAAGCCAAGGGCGCAGGCTCGATGCGCAGCACGACATAGCCGGTTCTCGCAAGGACGAGAATTTCCCTGCGGTGCCCCTCAAGTGTCAATGAAAGTTTCCAACGCGAGCCATTCGCGAGAGCCTTGAGTCCACGCTAGATCTGCCTCGCTGGCCTGCCGCAGTTCTTCAACCTCCCGGCGCAGCTTTTCGTTCTCAATTTCAGCATCCCTTTCGGCATACCATTTTATGACGGCGGCAGAGTCATAAAGCACCTCATTACCCTTGCCACCGCCTCGCAGAACGGGCATTCCCTGTTCCTGCCAGTTCTGAATGGTACGGATACTCGCACCGAAAATGTCAGCCAGCTGCTTTTTGTTGACTTCCATTGTTCATTCCACGGACAAAAACAGAGAAAGGAAACGACAGAGGCCAAAAAGCTCGCTTTCAGCACCTGTCGTTTCCTTTCTTTTCAGAGGGTATTTTAAATAAAAACATTAAGTTATGACGAAGAAGAACGGAAACGCCTTAAACCGGAAAATTTTCATAAATAGCGAAAACCCGCGAGGTCGCCGCCCCGTAACAAGGCGGATCGCCGGAAAGGACCCGCAAATGATAATAATTATCAATTGCATACTATCGACGGCACTGCTGCCAGATAACACCACCGGGGAAACATTCCATCATGATGGCCGTGCGGACATAGGAAGCCAGTTCATCCATCGCTTTCTTGTCTGCTGCCATTTGCTTTGTGACATCCAGCGCCGCACATTCAGCAGCGTTTTTCAGCGCGTTTTCGATCAACGTTTCAATGTTGGTATCAACACCAGGTTTAACTTTGAACTTATCGGCACTGACGGTTACCTTGTTCTGCGCTGGCTCATCACGCTGGATACCAAGGCTGATGTTGTAGATATTGGTCACCGGCTGAGGTGTTTCGATTGCCGCTGCGTGGATAGCACCATTTGCGATAGCGGCGTCCTTGATGAATGACACTCCATTGCGAATAAGTTCGAAGGAGACGGTGTCACGAATGCGCTGGTCCAGCTCGTCGATTGCCTTTTGTGCAGCAGAGGTATCAATCTCAACGCCAAGCGTCATCGAAGCGCAATATTGCTGCTCACCAAAACGCGTATTGACCAGGTGTTCAACGGCAAATTTCTGCCCTTCTGATGTCAGAAAGGTAAAGTGATTTTCTTTCTGGTATTCAGTTGCTGTGTGTCTGGTTTCAGCAAAACCAAGCTCGCGCAATTCGGCTGTGCCAGATTTAGAAGGCAGATCACCAGACAGCAACGCGCCACGGAAAAACAGCGCATACAGAACATCCGTCGCCGCGCCGGACAACGTGATAATTTTATGACCCATGATTTATTTCCTTTTAGACGTGAGCCTGTCGCACAGCAAAGCCGCCGAAAGTTAACGGTTTGCCCAGGCTCACAACTGAAAGACTTTCTACGGTGTGCGCGTGCGATGCGCGTAGAAGACTGATTTATCAACCTGTCTTTATATCAGGATTCATTACCTGACTATTTGTGGGTAAAGTTCGTAGTGCGCTGATCGTGCAAAATGATTTTAGTTGGGAACAGTTCGCAACTCTGTCCCATAAAAATCAGCATATTCCCATCTATCCCATATCCAGCGCATTGACCATCGGGATACTGAAGGGAGATTCCATCATCTCTTAGAAAGATCACCATCTCTTTTGTTTCAATTTGCATATAGCTACCTGGAGGATTTATGAATACAAGGATTTTCATGGACTATTACCATGAGATTGATTTTCCATCTTTATTCGCGAGAGCAGTGGAAAGCGATGACGATGTGGGTACTACATTGCGCATTCACCTACTTTGTGAGCGCATGGTCGAAGCATGGATATGCGCATGCTGTGACTGCCAAGATCTATCTCATCTGCGCAAGGCAGAACGTGAAGACGGCCGCCCTGGACCTCGCCCGCGAGCGCCAGGCGCACGAGGCCGGCGCGCGGACCCGCGCCACGGCCCACGAGCGGACGCCGCAGCAGGAGCGCCAGAAGGCCGCCAGAGAGGCCGAGCGCGGCCGTGAGGCTTGGACGCTAGGGCAGGGCATGAAAAAGCCCGTAGCGGGCTGCTACGGGCGTCTGACGCGGTGGAAAGGGGGAGGGGATGTTGTCTACATGGCTCTGCTGTAGTGAGTGGGTTGCGCTCCGGCAGCGGTCCTGATCAATCGTCACCCTTTCTCGGTCCTTCAACGTTCCTGACAACGAGCCTCCTTTTCGCCAATCCATCGACAATCACCGCGAGTCCCTGCTCGAACGCTGCGTCCGGACCGGCTTCGTCGAAGGCGTCTATCGCGGCCCGCAACAGCGGCGAGAGCGGAGCCTGTTCAACGGTGCCGCCGCGCTCGCCGGCATCGCTGTCGCCGGCCTGCTCCTCAAGCACGGCCCCAACAGTGAAGTAGCTGATTGTCATCAGCGCATTGACGGCGTCCCCGGCCGAAAAACCCGCCTCGCAGAGGAAGCGAAGCTGCGCGTCGGCCGTTTCCATCTGCGGTGCGCCCGGTCGCGTGCCGGCATGGATGCGCGCGCCATCGCGGTAGGCGAGCAGCGCCTGCCTGAAGCTGCGGGCATTCCCGATCAGAAATGAGCGCCAGTCGTCGTCGGCTCTCGGCACCGAATGCGTATGATTCTCCGCCAGCATGGCTTCGGCCAGTGCGTCGAGCAGCGCCCGCTTGTTCCTGAAGTGCCAGTAAAGCGCCGGCTGCTGAACCCCCAACCGTTCCGCCAGTTTGCGTGTCGTCAGACCGTCTACGCCGACCTCGTTCAACAGGTCCAGGGCGGCACGGATCACTGTATTCGGCTGCAACTTTGTCATGCTTGACACTTTATCACTGATAAACATAATATGTCCACCAACTTATCAGTGATAAAGAATCCGCGCGTTCAATCGGACCAGCGGAGGCTGGTCCGGAGGCCAGACGTGAAACCCAACATACCCCTGATCGTAATTCTGAGCACTGTCGCGCTCGACGCTGTCGGCATCGGCCTGATTATGCCGGTGCTGCCGGGCCTCCTGCGCGATCTGGTTCACTCGAACGACGTCACCGCCCACTATGGCATTCTGCTGGCGCTGTATGCGTTGGTGCAATTTGCCTGCGCACCTGTGCTGGGCGCGCTGTCGGATCGTTTCGGGCGGCGGCCAATCTTGCTCGTCTCGCTGGCCGGCGCCACTGTCGACTACGCCATCATGGCGACAGCGCCTTTCCTTTGGGTTCTCTATATCGGGCGGATCGTGGCCGGCATCACCGGGGCGACTGGGGCGGTAGCCGGCGCTTATATTGCCGATATCACTGATGGCGATGAGCGCGCGCGGCACTTCGGCTTCATGAGCGCCTGTTTCGGGTTCGGGATGGTCGCGGGACCTGTGCTCGGTGGGCTGATGGGCGGTTTCTCCCCCCACGCTCCGTTCTTCGCCGCGGCAGCCTTGAACGGCCTCAATTTCCTGACGGGCTGTTTCCTTTTGCCGGAGTCGCACAAAGGCGAACGCCGGCCGTTACGCCGGGAGGCTCTCAACCCGCTCGCTTCGTTCCGGTGGGCCCGGGGCATGACCGTCGTCGCCGCCCTGATGGCGGTCTTCTTCATCATGCAACTTGTCGGACAGGTGCCGGCCGCGCTTTGGGTCATTTTCGGCGAGGATCGCTTTCACTGGGACGCGACCACGATCGGCATTTCGCTTGCCGCATTTGGCATTCTGCATTCACTCGCCCAGGCAATGATCACCGGCCCTGTAGCCGCCCGGCTCGGCGAAAGGCGGGCACTCATGCTCGGAATGATTGCCGACGGCACAGGCTACATCCTGCTTGCCTTCGCGACACGGGGATGGATGGCGTTCCCGATCATGGTCCTGCTTGCTTCGGGTGGCATCGGAATGCCGGCGCTGCAAGCAATGTTGTCCAGGCAGGTGGATGAGGAACGTCAGGGGCAGCTGCAAGGCTCACTGGCGGCGCTCACCAGCCTGACCTCGATCGTCGGACCCCTCCTCTTCACGGCGATCTATGCGGCTTCTATAACAACGTGGAACGGGTGGGCATGGATTGCAGGCGCTGCCCTCTACTTGCTCTGCCTGCCGGCGCTGCGTCGCGGGCTTTGGAGCGGCGCAGGGCAACGAGCCGATCGCTGATCGTGGAAACGATAGGCCTATGCCATGCGGGTCAAGGCGACTTCCGGCAAGCTATACGCGCCCTAGGAGTGCGGTTGGAACGTTGGCCCAGCCAGATACTCCCGATCACGAGCAGGACGCCGATGATTTGAAGCGCACTCAGCGTCTGATCCAAGAACAACCATCCTAGCAACACGGCGGTCCCCGGGCTGAGAAAGCCCAGTAAGGAAACAACTGTAGGTTCGAGTCGCGAGATCCCCCGGAACCAAAGGAAGTAGGTTAAACCCGCTCCGATCAGGCCGAGCCACGCCAGGCCGAGAACATTGGTTCCTGTAGGCATCGGGATTGGCGGATCAAACACTAAAGCTACTGGAACGAGCAGAAGTCCTCCGGCCGCCAGTTGCCAGGCGGTAAAGGTGAGCAGAGGCACGGGAGGTTGCCACTTGCGGGTCAGCACGGTTCCGAACGCCATGGAAACCGCCCCCGCCAGGCCCGCTGCGACGCCGACAGGATCTAGCGCTGCGTTTGGTGTCAACACCAACAGCGCCACGCCCGCAGTTCCGCAAATAGCCCCCAGGACCGCCATCAATCGTATCGGGCTACCTAGCAGAGCGGCAGAGATGAACACGACCATCAGCGGCTGCACAGCGCCTACCGTCGCCGCGACCCCGCCCGGCAGGCGGTAGACCGAAATAAACAACAAGCTCCAGAATAGCGAAATATTAAGTGCGCCGAGGATGAAGATGCGCATCCACCAGATTCCCGTTGGAATCTGTCGGACGATCATCACGAGCAATAAACCCGCCGGCAACGCCCGCAGCAGCATACCGGCGACCCCTCGGCCTCGCTGTTCGGGCTCCACGAAAACGCCGGACAGATGCGCCTTGTGAGCGTCCTTGGGGCCGTCCTCCTGTTTGAAGACCGACAGCCCAATGATCTCGCCGTCGATGTAGGCGCCGAATGCCACGGCATCTCGCAACCGTTCAGCGAACGCCTCCATGGGCTTTTTCTCCTCGTGCTCGTAAACGGACCCGAACATCTCTGGAGCTTTCTTCAGGGCCGACAATCGGATCTCGCGGAAATCCTGCACGTCGGCCGCTCCAAGCCGTCGAATCTGAGCCTTAATCACAATTGTCAATTTTAATCCTCTGTTTATCGGCAGTTCGTAGAGCGCGCCGTGCGTCCCGAGCGATACTGAGCGAAGCAAGTGCGTCGAGCAGTGCCCGCTTGTTCCTGAAATGCCAGTAAAGCGCTGGCTGCTGAACCCCCAGCCGGAACTGACCCCACAAGGCCCTAGCGTTTGCAATGCACCAGGTCATCATTGACCCAGGCGTGTTCCACCAGGCCGCTGCCTCGCAACTCTTCGCAGGCTTCGCCGACCTGCTCGCGCCACTTCTTCACGCGGGTGGAATCCGATCCGCACATGAGGCGGAAGGTTTCCAGCTTGAGCGGGTACGGCTCCCGGTGCGAGCTGAAATAGTCGAACATCCGTCGGGCCGTCGGCGACAGCTTGCGGTACTTCTCCCATATGAATTTCGTGTAGTGGTCGCCAGCAAACAGCACGACGATTTCCTCGTCGATCAGGACCTGGCAACGGGACGTTTTCTTGCCACGGTCCAGGACGCGGAAGCGGTGCAGCAGCGACACCGATTCCAGGTGCCCAACGCGGTCGGACGTGAAGCCCATCGCCGTCGCCTGTAGGCGCGACAGGCATTCCTCGGCCTTCGTGTAATACCGGCCATTGATCGACCAGCCCAGGTCCTGGCAAAGCTCGTAGAACGTGAAGGTGATCGGCTCGCCGATAGGGGTGCGCTTCGCGTACTCCAACACCTGCTGCCACACCAGTTCGTCATCGTCGGCCCGCAGCTCGACGCCGGTGTAGGTGATCTTCACGTCCTTGTTGACGTGGAAAATGACCTTGTTTTGCAGCGCCTCGCGCGGGATTTTCTTGTTGCGCGTGGTGAACAGGGCAGAGCGGGCCGTGTCGTTTGGCATCGCTCGCATCGTGTCCGGCCACGGCGCAATATCGAACAAGGAAAGCTGCATTTCCTTGATCTGCTGCTTCGTGTGTTTCAGCAACGCGGCCTGCTTGGCCTCGCTGACCTGTTTTGCCAGGTCCTCGCCGGCGGTTTTTCGCTTCTTGGTCGTCATAGTTCCTCGCGTGTCGATGGTCATCGACTTCGCCAAACCTGCCGCCTCCTGTTCGAGACGACGCGAACGCTCCACGGCGGCCGATGGCGCGGGCAGGGCAGGGGGAGCCAGTTGCACGCTGTCGCGCTCGATCTTGGCCGTAGCTTGCTGGACCATCGAGCCGACGGACTGGAAGGTTTCGCGGGGCGCACGCATGACGGTGCGGCTTGCGATGGTTTCGGCATCCTCGGCGGAAAACCCCGCGTCGATCAGTTCTTGCCTGTATGCCTTCCGGTCAAACGTCCGATTCATTCACCCTCCTTGCGGGATTGCCCCGACTCACGCCGGGGCAATGTGCCCTTATTCCTGATTTGACCCGCCTGGTGCCTTGGTGTCCAGATAATCCACCTTATCGGCAATGAAGTCGGTCCCGTAGACCGTCTGGCCGTCCTTCTCGTACTTGGTATTCCGAATCTTGCCCTGCACGAATACCAGCGACCCCTTGCCCAAATACTTGCCGTGGGCCTCGGCCTGAGAGCCAAAACACTTGATGCGGAAGAAGTCGGTGCGCTCCTGCTTGTCGCCGGCATCGTTGCGCCACTCTTCATTAACCGCTATATCGAAAATTGCTTGCGGCTTGTTAGAATTGCCATGACGTACCTCGGTGTCACGGGTAAGATTACCGATAAACTGGAACTGATTATGGCTCATATCGAAAGTCTCCTTGAGAAAGGAGACTCTAGTTTAGCTAAACATTGGTTCCGCTGTCAAGAACTTTAGCGGCTAAAATTTTGCGGGCCGCGACCAAAGGTGCGAGGGGCGGCTTCCGCTGTGTACAACCAGATATTTTTCACCAACATCCTTCGTCTGCTCGATGAGCGGGGCATGACGAAACATGAGCTGTCGGAGAGGGCAGGGGTTTCAATTTCGTTTTTATCAGACTTAACCAACGGTAAGGCCAACCCCTCGTTGAAGGTGATGGAGGCCATTGCCGACGCCCTGGAAACTCCCCTACCTCTTCTCCTGGAGTCCACCGACCTTGACCGCGAGGCACTCGCGGAGATTGCGGGTCATCCTTTCAAGAGCAGCGTGCCGCCCGGATACGAACGCATCAGTGTGGTTTTGCCGTCACATAAGGCGTTTATCGTAAAGAAATGGGGCGACGACACCCGAAAAAAGCTGCGTGGAAGGCTCTGACGCCAAGGGTTAGGGCTTGCACTTCCTTCTTTAGCCGCTAAAACGGCCCCTTCTCTGCGGGCCGTCGGCTCGCGCATCATATCGACATCCTCAACGGAAGCCGTGCCGCGAATGGCATCGGGCGGGTGCGCTTTGACAGTTGTTTTCTATCAGAACCCCTACGTCGTGCGGTTCGATTAGCTGTTTGTCTTGCAGGCTAAACACTTTCGGTATATCGTTTGCCTGTGCGATAATGTTGCTAATGATTTGTTGCGTAGGGGTTACTGAAAAGTGAGCGGGAAAGAAGAGTTTCAGACCATCAAGGAGCGGGCCAAGCGCAAGCTGGAACGCGACATGGGTGCGGACCTGTTGGCCGCGCTCAACGACCCGAAAACCGTTGAAGTCATGCTCAACGCGGACGGCAAGGTGTGGCACGAACGCCTTGGCGAGCCGATGCGGTACATCTGCGACATGCGGCCCAGCCAGTCGCAGGCGATTATAGAAACGGTGGCCGGATTCCACGGCAAAGAGGTCACGCGGCATTCGCCCATCCTGGAAGGCGAGTTCCCCTTGGATGGCAGCCGCTTTGCCGGCCAATTGCCGCCGGTCGTGGCCGCGCCAACCTTTGCGATCCGCAAGCGCGCGGTCGCCATCTTCACGCTGGAACAGTACGTCGAGGCGGGCATCATGACCCGCGAGCAATACGAGGTCATTAAAAGCGCCGTCGCGGCGCATCGAAACATCCTCGTCATTGGCGGTACTGGCTCGGGCAAGACCACGCTCGTCAACGCGATCATCAATGAAATGGTCGCCTTCAACCCGTCTGAGCGCGTCGTCATCATCGAGGACACCGGCGAAATCCAGTGCGCCGCAGAGAACGCCGTCCAATACCACACCAGCATCGACGTCTCGATGACGCTGCTGCTCAAGACAACGCTGCGTATGCGCCCCGACCGCATCCTGGTCGGTGAGGTACGTGGCCCCGAAGCCCTTGATCTGTTGATGGCCTGGAACACCGGGCATGAAGGAGGTGCCGCCACCCTGCACGCAAACAACCCCAAAGCGGGCCTGAGCCGGCTCGCCATGCTTATCAGCATGCACCCGGATTCACCGAAACCCATTGAGCCGCTGATTGGCGAGGCGGTTCATGTGGTCGTCCATATCGCCAGGACCCCTAGCGGCCGTCGAGTGCAAGAAATTCTCGAAGTTCTTGGTTACGAGAACGGCCAGTACATCACCAAAACCCTGTAAGGAGTATTTCCAATGACAACGGCTGTTCCGTTCCGTCTGACCATGAATCGCGGCATTTTGTTCTACCTTGCCGTGTTCTTCGTTCTCGCTCTCGCGTTATCCGCGCATCCGGCGATGGCCTCGGAAGGCACCGGCGGCAGCTTGCCATATGAGAGCTGGCTGACGAACCTGCGCAACTCCGTAACCGGCCCGGTGGCCTTCGCGCTGTCCATCATCGGCATCGTCGTCGCCGGCGGCGTGCTGATCTTCGGCGGCGAACTCAACGCCTTCTTCCGAACCCTGATCTTCCTGGTTCTGGTGATGGCGCTGCTGGTCGGCGCGCAGAACGTGATGAGCACCTTCTTCGGTCGTGGTGCCGAAATCGCGGCCCTCGGCAACGGGGCGCTGCACCAGGTGCAAGTCGCGGCGGCGGATGCCGTGCGTGCGGTAGCGGCTGGACGGCTCGCCTAATCATGGCTCTGCGCACGATCCCCATCCGTCGCGCAGGCAACCGAGAAAACCTGTTCATGGGTGGTGATCGTGAACTGGTGATGTTCTCGGGCCTGATGGCGTTTGCGCTGATTTTCAGCGCCCAAGAGCTGCGGGCCACCGTGGTCGGTCTGATCCTGTGGTTCGGGGCGCTCTATGCGTTCCGAATCATGGCGAAGGCCGATCCGAAGATGCGGTTCGTGTACCTGCGTCACCGCCGGTACAAGCCGTATTACCCGGCCCGCTCGACCCCGTTCCGCGAGAACACCAATAGCCAAGGGAAGCAATACCGATGATCCAAGCAATTGCGATTGCAATCGCGGGCCTCGGCGCGCTTCTGTTGTTCATCCTCTTTGCCCGCATCCGCGCGGTCGATGCCGAACTGAAACTGAAAAAGCATCGTTCCAAGGACGCCGGCCTGGCCGATCTGCTCAACTACGCCGCTGTCGTCGATGACGGCGTAATCGTGGGCAAGAACGGCAGCTTTATGGCTGCCTGGCTGTACAAGGGCGATGACAACGCAAGCAGCACCGACCAGCAGCGCGAAGTAGTGTCCGCCCGCATCAACCAGGCCCTCGCGGGCCTGGGAAGTGGGTGGATGATCCATGTGGACGCCGTGCGGCGTCCTGCTCCGAACTACGCGGAGCGGGGCCTGTCGGCGTTCCCTGACCGTCTGACGGCAGCGATTGAAGAAGAGCGCTCGGTCTTGCCTTGCTCGTCGGTGATGTACTTCACCAGCTCCGCGAAGTCGCTCTTCTTGATGGAGCGCATGGGGACGTGCTTGGCAATCACGCGCACCCCCCGGCCGTTTTAGCGGCTAAAAAAGTCATGGCTCTGCCCTCGGGCGGACCACGCCCATCATGACCTTGCCAAGCTCGTCCTGCTTCTCTTCGATCTTCGCCAGCAGGGCGAGGATCGTGGCATCACCGAACCGCGCCGTGCGCGGGTCGTCGGTGAGCCAGAGTTTCAGCAGGCCGCCCAGGCGGCCCAGGTCGCCATTGATGCGGGCCAGCTCGCGGACGTGCTCATAGTCCACGACGCCCGTGATTTTGTAGCCCTGGCCGACGGCCAGCAGGTAGGCCGACAGGCTCATGCCGGCCGCCGCCGCCTTTTCCTCAATCGCTCTTCGTTCGTCTGGAAGGCAGTACACCTTGATAGGTGGGCTGCCCTTCCTGGTTGGCTTGGTTTCATCAGCCATCCGCTTGCCCTCATCTGTTACGCCGGCGGTAGCCGGCCAGCCTCGCAGAGCAGGATTCCCGTTGAGCACCGCCAGGTGCGAATAAGGGACAGTGAAGAAGGAACACCCGCTCGCGGGTGGGCCTACTTCACCTATCCTGCCCGGCTGACGCCGTTGGATACACCAAGGAAAGTCTACACGAACCCTTTGGCAAAATCCTGTATATCGTGCGAAAAAGGATGGATATACCGAAAAAATCGCTATAATGACCCCGAAGCAGGGTTATGCAGCGGAAAAGCGCTGCTTCCCTGCTGTTTTGTGGAATATCTACCGACTGGAAACAGGCAAATGCAGGAAATTACTGAACTGAGGGGACAGGCGAGAGACGATGCCAAAGAGCTACACCGACGAGCTGGCCGAGTGGGTTGAATCCCGCGCGGCCAAGAAGCGCCGGCGTGATGAGGCTGCGGTTGCGTTCCTGGCGGTGAGGGCGGATGTCGAGGCGGCGTTAGCGTCCGGCTATGCGCTCGTCACCATTTGGGAGCACATGCGGGAAACGGGGAAGGTCAAGTTCTCCTACGAGACGTTCCGCTCGCACGCCAGGCGGCACATCAAGGCCAAGCCCGCCGATGTGCCCGCACCGCAGGCCAAGGCTGCGGAACCCGCGCCGGCACCCAAGACGCCGGAGCCACGGCGGCCGAAGCAGGGGGGCAAGGCTGAAAAGCCGGCCCCCGCTGCGGCCCCGACCGGCTTCACCTTCAACCCAACACCGGACAAAAAGGATCTACTGTAATGGCGAAAATTCACATGGTTTTGCAGGGCAAGGGCGGGGTCGGCAAGTCGGCCATCGCCGCGATCATTGCGCAGTACAAGATGGACAAGGGGCAGACACCCTTGTGCATCGACACCGACCCGGTGAACGCGACGTTCGAGGGCTACAAGGCCCTGAACGTCCGCCGGCTGAACATCATGGCCGGCGACGAAATTAACTCGCGCAACTTCGACACCCTGGTCGAGCTGATTGCGCCGACCAAGGATGACGTGGTGATCGACAACGGTGCCAGCTCGTTCGTGCCTCTGTCGCATTACCTCATCAGCAACCAGGTGCCGGCTCTGCTGCAAGAAATGGGGCATGAGCTGGTCATCCATACCGTCGTCACCGGCGGCCAGGCTCTCCTGGACACGGTGAGCGGCTTCGCCCAGCTCGCCAGCCAGTTCCCGGCCGAAGCGCTTTTCGTGGTCTGGCTGAACCCGTATTGGGGGCCTATCGAGCATGAGGGCAAGAGCTTTGAGCAGATGAAGGCGTACACGGCCAACAAGGCCCGCGTGTCGTCCATCATCCAGATTCCGGCCCTCAAGGAAGAAACCTACGGCCGCGATTTCAGCGACATGCTGCAAGAGCGGCTGACGTTCGACCAGGCGCTGGCCGATGAATCGCTCACGATCATGACGCGGCAACGCCTCAAGATCGTGCGGCGCGGCCTGTTTGAACAGCTCGACGCGGCGGCCGTGCTATGAGCGACCAGATTGAAGAGCTGATCCGGGAGATTGCGGCCAAGCACGGCATCGCCGTCGGCCGCGACGACCCGGTGCTGATCCTGCATACCATCAACGCCCGGCTCATGGCCGACAGTGCGGCCAAGCAAGAGGAAATCCTTGCCGCGTTCAAGGAAGAGCTGGAAGGGATCGCCCATCGTTGGGGCGAGGACGCCAAGGCCAAAGCGGAGCGGATGCTGAACGCGGCCCTGGCGGCCAGCAAGGACGCAATGGCGAAGGTAATGAAGGACAGCGCCGCGCAGGCGGCCGAAGCGATCCGCAGGGAAATCGACGACGGCCTTGGCCGCCAGCTCGCGGCCAAGGTCGCGGACGCGCGGCGCGTGGCGATGATGAACATGATCGCCGGCGGCATGGTGTTGTTCGCGGCCGCCCTGGTGGTGTGGGCCTCGTTATGAATCGCAGAGGCGCAGATGAAAAAGCCCGGCGTTGCCGGGCTTTGTTTTTGCGTTAGCTGGGCTTGTTTGACAGGCCCAAGCTCTGACTGCGCCCGCGCTCGCGCTCCTGGGCCTGTTTCTTCTCCTGCTCCTGCTTGCGCATCAGGGCCTGGTGCCGTCGGGCTGCTTCACGCATCGAATCCCAGTCGCCGGCCAGCTCGGGATGCTCCGCGCGCATCTTGCGCGTCGCCAGTTCCTCGATCTTGGGCGCGTGAATGCCCATGCCTTCCTTGATTTCGCGCACCATGTCCAGCCGCGTGTGCAGGGTCTGCAAGCGGGCTTGCTGTTGGGCCTGCTGCTGCTGCCAGGCGGCCTTTGTACGCGGCAGGGACAGCAAGCCGGGGGCATTGGACTGTAGCTGCTGCAAACGCGCCTGCTGACGGTCTACGAGCTGTTCTAGGCGGTCCTCGATGCGCTCCACCTGGTCATGCTTTGCCTGCACGTAGAGCGCAAGGGTCTGCTGGTAGGTCTGCTCGATGGGCGCGGATTCTAAGAGGGCCTGCTGTTCCGTCTCGGCCTCCTGGGCCGCCTGTAGCAAATCCTCGCCGCTGTTGCCGCTGGACTGCTTTACTGCCGGGGACTGCTGTTGCCCTGCTCGCGCCGTCGTCGCAGTTCGGCTTGCCCCCACTCGATTGACTGCTTCATTTCGAGCCGCAGCGATGCGATCTCGGATTGCGTCAACGGACGGGGCAGCGCGGAGGTGTCCGGCTTCTCCTTGGGTGAGTCGGTCGATGCCATAGCCAAAGGTTTCCTTCCAAAATGCGTCCATTGCTGGACCGTGTTTCTCATTGATGCCCGCAAGCATCTTCGGCTTGACCGCCAGGTCAAGCGCGCCTTCATGGGCGGTCATGACGGACGCCGCCATGACCTTGCCGCCGTTGTTCTCGATGTAGCCGCGTAATGAGGCAATGGTGCCGCCCATCGTCAGCGTGTCATCGACAACGATGTACTTCTGGCCGGGGATCACCTCCCCCTCGAAAGTCGGGTTGAACGCCAGGCGATGATCTGAACCGGCTCCGGTTCGGGCGACCTTCTCCCGCTGCACAATGTCCGTTTCGACCTCAAGGCCAAGGCGGTCGGCCAGAACGACCGCCATCATGGCCGGAATCTTGTTGTTCCCCGCCGCCTCGACGGCGAGGACTGGAACGATGCGGGGCTTGTCGTCGCCGATCAGCGTCTTGAGCTGGGCAACAGTGTCGTCCGAAATCAGGCGCTCGACCAAATTAAGCGCCGCTTCCGCGTCGCCCTGCTTCGCAGCCTGGTATTCAGGCTCGTTGGTCAAAGAACCAAGGTCGCCGTTGCGAACCACCTTCGGGAAGTCTCCCCACGGTGCGCGCTCGGCTCTGCTGTAGCTGCTCAAGACGCCTCCCTTTTTAGCCGCTAAAACTCTAACGAGTGCGCCCGCGACTCAACTTGACGCTTTCGGCACTTACCTGTGCCTTGCCACTTGCGTCATAGGTGATGCTTTTCGCACTCCCGATTTCAGGTACTTTATCGAAATCTGACCGGGCGTGCATTACAAAGTTCTTCCCCACCTGTTGGTAAATGCTGCCGCTATCTGCGTGGACGATGCTGCCGTCGTGGCGCTGCGACTTATCGGCCTTTTGGGCCATATAGATGTTGTAAATGCCAGGTTTCAGGGCCCCGGCTTTATCTACCTTCTGGTTCGTCCATGCGCCTTGGTTCTCGGTCTGGACAATTCTTTGCCCATTCATGACCAGGAGGCGGTGTTTCATTGGGTGACTCCTGACGGTTGCCTCTGGTGTTAAACGTGTCCTGGTCGCTTGCCGGCTAAAAAAAAGCCGACCTCGGCAGTTCGAGGCCGGCTTTCCCTAGAGCCGGGCGCGTCAAGGTTGTTCCATCTATTTTAGTGAACTGCGTTCGATTTATCAGTTACTTTCCTCCCGCTTTGTGTTTCCTCCCACTCGTTTCCGCGTCTAGCCGACCCCTCAACATAGCGGCCTCTTCTTGGGCTGCCTTTGCCTCTTGCCGCGCTTCGTCACGCTCGGCTTGCACCGTCGTAAAGCGCTCGGCCTGCCTGGCCGCCTCTTGCGCCGCCAACTTCCTTTGCTCCTGGTGGGCCTCGGCGTCGGCCTGCGCCTTCGCTTTCACCGCTGCCAACTCCGTGCGCAAACTCTCCGCTTCGCGCCTGGTGGCGTCGCGCTCGCCGCGAAGCGCCTGCATTTCCTGGTTGGCCGCGTCCAGGGTCTTGCGGCTCTCTTCTTTGAATGCGCGGGCGTCCTGGTGAGCGTAGTCCAGCTCGGCGCGCAGCTCCTGCGCTCGACGCTCCACCTCGTCGGCCCGCTGCGTCGCCAGCGCGGCCCGCTGCTCGGCTCCTGCCAGGGCGGTGCGTGCTTCGGCCAGGGCTTGCCGCTGGCGTGCGGCCAGCTCGGCCGCCTCGGCGGCCTGCTGCTCTAGCAATGTAACGCGCGCCTGGGCTTCTTCCAGCTCGCGGGCCTGCGCCTCGAAGGCGTCGGCCAGCTCCCCGCGCACGGCTTCCAACTCGTTGCGCTCACGATCCCAGCCGGCTTGCGCTGCCTGCAACGATTCATTGGCAAGGGCCTGGGCGGCTTGCCAGAGGGCGGCCACGGCCTGGTTGCCGGCCTGCTGCACCGCGTCCGGCACCTGGACTGCCAGCGGGGCGGCCTGCGCCGTGCGCTGGCGTCGCCATTCGCGCATGCCGGCGCTGGCGTCGTTCATGTTGACGCGGGCGGCCTTACGCACTGCATCCACGGTCGGGAAGTTCTCCCGGTCGCCTTGCTCGAACAGCTCGTCCGCAGCCGCAAAAATGCGGTCGCGCGTCTCTTTGTTCAGTTCCATGTTGGCTCCGGTAATTGGTAAGAATAATAATACTCTTACCTACCTTATCAGCGCAAGAGTTTAGCTGAACAGTTCTCGACTTAACGGCAGGTTTTTTAGCGGCTGAAGGGCAGGCAAAAAAAGCCCCGCACGGTCGGCGGGGGCAAAGGGTCAGCGGGAAGGGGATTAGCGGGCGTCGGGCTTCTTCATGCGTCGGGGCCGCGCTTCTTGGGATGGAGCACGACGAAGCGCGCACGCGCATCGTCCTCGGCCCTATCGGCCCGCGTCGCGGTCAGGAACTTGTCGCGCGCTAGGTCCTCCCTGGTGGGCACCAGGGGCATGAACTCGGCCTGCTCGATGTAGGTCCACTCCATGACCGCATCGCAGTCGAGGCCGCGTTCCTTCACCGTCTCTTGCAGGTCGCGGTACGCCCGCTCGTTGAGCGGCTGGTAACGGGCCAATTGGTCGTAAATGGCTGTCGGCCATGAGCGGCCTTTCCTGTTGAGCCAGCAGCCGACGACGAAGCCGGCAATGCAGGCCCCTGGCACAACCAGGCCGACGCCGGGGGCAGGGGATGGCAGCAGCTCGCCAACCAGGAACCCCGCCGCGATGATGCCGATGCCGGTCAACCAGCCCTTGAAACTATCCGGCCCCGAAACACCCCTGCGCATTGCCTGGATGCTGCGCCGGATAGCTTGCAACATCAGGAGCCGTTTCTTTTGTTCGTCAGTCATGGTCCGCCCTCACCAGTTGTTCGTATCGGTGTCGGACGAACTGAAATCGCAAGAGCTGCCGGTATCGGTCCAGCCGCTGTCCGTGTCGCTGCTGCCGAAGCACGGCGAGGGGTCCGCGAACGCCGCAGACGGCGTATCCGGCCGCAGCGCATCGCCCAGCATGGCCCCGGTCAGCGAGCCGCCGGCCAGGTAGCCCAGCATGGTGCTGTTGGTCGCCCCGGCCACCAGGGCCGACGTGACGAAATCGCCGTCATTCCCTCTGGATTGTTCGCTGCTCGGCGGGGCAGTGCGCCGCGCCGGCGGCGTCGTGGATGGCTCGGGTTGGCTGGCCTGCGACGGCCGGCGAAAGGTGCGCAGCAGCTCGTTATCGACCGGCTGCGGCGTCGGGGCCGCCGCCTTGCGCTGCGGTCGGTGTTCCTTCTTCGGCTCGCGCAGCTTGAACAGCATGATCGCGGAAACCAGCAGCAACGCCGCGCCTACGCCTCCCGCGATGTAGAACAGCATCGGATTCATTCTTCGGTCCTCCTTGTAGCGGAACCGTTGTCTGTGCGGCGCGGGTGGCCCGCGCCGCTGTCTTTGGGGATCAGCCCTCGATGAGCGCGACCAGTTTCACGTCGGCAAGGTTCGCCTCGAACTCCTGGCCGTCGTCCTCGTACTTCAACCAGGCATAGCCTTCCGCCGGCGGCCGACGGTTGAGGATAAGGCGGGCAGGGCGCTCGTCGTGCTCGACCTGGACGATGGCCTTTTTCAGCTTGTCCGGGTCCGGCTCCTTCGCGCCCTTTTCCTTGGCGTCCTTACCGTCCTGGTCGCCGTCCTCGCCGTCCTGGCCGTCGCCGGCCTCCGCGTCACGCTCGGCATCAGTCTGGCCGTTGAAGGCATCGACGGTGTTGGGATCGCGGCCCTTCTCGTCCAGGAACTCGCGCAGCAGCTTGACCGTGCCGCGCGTGATTTCCTGGGTGTCGTCGTCAAGCCACGCCTCGACTTCCTCCGGGCGCTTCTTGAAGGCCGTCACCAGCTCGTTCACCACGGTCACGTCGCGCACGCGGCCGGTGTTGAACGCATCGGCGATCTTCTCCGGCAGGTCCAGCAGCGTGACGTGCTGGGTGATGAACGCCGGCGACTTGCCGATTTCCTTGGCGATATCGCCTTTCTTCTTGCCCTTCGCCAGCTCGCGGCCAATGAAGTCGGCAATTTCGCGCGGGGTCAGCTCGTTGCGTTGCAGGTTCTCGATAACCTGGTCGGCTTCGTTGTAGTCGTTGTCGATGAACGCCGGGATGGACTTCTTGCCGGCCCACTTCGAGCCACGGTAGCGGCGGGCGCCGTGATTGATGATATAGCGGCCCGGCTGCTCCTGGTTCTCGCGCACCGAAATGGGTGACTTCACCCCGCGCTCTTTGATCGTGGCACCGATTTCCGCGATGCTCTCCGGGGAAAAGCCGGGGTTGTCGGCCGTCCGCGGCTGATGCGGATCTTCGTCGATCAGGTCCAGGTCCAGCTCGATAGGGCCGGAACCGCCCTGAGACGCCGCAGGAGCGTCCAGGAGGCTCGACAGGTCGCCGATGCTATCCAACCCCAGGCCGGACGGCTGCGCCGCGCCTGCGGCTTCCTGAGCGGCCGCAGCGGTGTTTTTCTTGGTGGTCTTGGCTTGAGCCGCAGTCATTGGGAAATCTCCATCTTCGTGAACACGTAATCAGCCAGGGCGCGAACCTCTTTCGATGCCTTGCGCGCGGCCGTTTTCTTGATCTTCCAGACCGGCACACCGGATGCGAGGGCATCGGCGATGCTGCTGCGCAGGCCAACGGTGGCCGGAATCATCATCTTGGGGTACGCGGCCAGCAGCTCGGCTTGGTGGCGCGCGTGGCGCGGATTCCGCGCATCGACCTTGCTGGGCACCATGCCAAGGAATTGCAGCTTGGCGTTCTTCTGGCGCACGTTCGCAATGGTCGTGACCATCTTCTTGATGCCCTGGATGCTGTACGCCTCAAGCTCGATGGGGGACAGCACATAGTCGGCCGCGAAGAGGGCGGCCGCCAGGCCGACGCCAAGGGTCGGGGCCGTGTCGATCAGGCACACGTCGAAGCCTTGGTTCGCCAGGGCCTTGATGTTCGCCCCGAACAGCTCGCGGGCGTCGTCCAGCGACAGCCGTTCGGCGTTCGCCAGTACCGGGTTGGACTCGATGAGGGCGAGGCGCGCGGCCTGGCCGTCGCCGGCTGCGGGTGCGGTTTCGGTCCAGCCGCCGGCAGGGACAGCGCCGAACAGCTTGCTTGCATGCAGGCCGGTAGCAAAGTCCTTGAGCGTGTAGGACGCATTGCCCTGGGGGTCCAGGTCGATCACGGCAACCCGCAAGCCGCGCTCGAAAAAGTCGAAGGCAAGATGCACAAGGGTCGAAGTCTTGCCGACGCCGCCTTTCTGGTTGGCCGTGACCAAAGTTTTCATCGTTTGGTTTCCTGTTTTTTCTTGGCGTCCGCTTCCCACTTCCGGACGATGTACGCCTGATGTTCCGGCAGAACCGCCGTTACCCGCGCGTACCCCTCGGGCAAGTTCTTGTCCTCGAACGCGGCCCACACGCGATGCACCGCTTGCGACACTGCGCCCCTGGTCAGTCCCAGCGACGTTGCGAACGTCGCCTGTGGCTTCCCATCGACTAAGACGCCCCGCGCTATCTCGATGGTCTGCTGCCCCACTTCCAGCCCCTGGATCGCCTCCTGGAACTGGCTTTCGGTAAGCCGTTTCTTCATGGATAACACCCATAATTTGCTCCGCGCCTTGGTTGAACATAGCGGTGACAGCCGCCAGCACATGAGAGAAGTTTAGCTAAACATTTCTCGCACGTCAACACCTTTAGCCGCTAAAACTCGTCCTTGGCGTAACAAAACAAAAGCCCGGAAACCGGGCTTTCGTCTCTTGCCGCTTATGGCTCTGCACCCGGCTCCATCACCAACAGGTCGCGCACGCGCTTCACTCGGTTGCGGATCGACACTGCCAGCCCAACAAAGCCGGTTGCCGCCGCCGCCAGGATCGCGCCGATGATGCCGGCCACACCGGCCATCGCCCACCAGGTCGCCGCCTTCCGGTTCCATTCCTGCTGGTACTGCTTCGCAATGCTGGACCTCGGCTCACCATAGGCTGACCGCTCGATGGCGTATGCCGCTTCTCCCCTTGGCGTAAAACCCAGCGCCGCAGGCGGCATTGCCATGCTGCCCGCCGCTTTCCCGACCACGACGCGCGCACCAGGCTTGCGGTCCAGACCTTCGGCCACGGCGAGCTGCGCAAGGACATAATCAGCCGCCGACTTGGCTCCACGCGCCTCGATCAGCTCTTGCACTCGCGCGAAATCCTTGGCCTCCACGGCCGCCATGAATCGCGCACGCGGCGAAGGCTCCGCAGGGCCGGCGTCGTGATCGCCGCCGAGAATGCCCTTCACCAAGTTCGACGACACGAAAATCATGCTGACGGCTATCACCATCATGCAGACGGATCGCACGAACCCGCTGAATTACTCGAGTTTAAACGGATCCTTAATTAAGCTAGCTAA'
p1287
sbsS'_per_letter_annotations'
p1288
g3
(cBio.SeqRecord
_RestrictedDict
p1289
c__builtin__
dict
p1290
(dtRp1291
(dp1292
S'_length'
p1293
I20392
sbsg87
S'AB521037.1'
p1294
sS'name'
p1295
S'AB521037'
p1296
sbsS'pSB4A5'
p1297
g3
(g4
g5
NtRp1298
(dp1299
g8
(lp1300
sg10
S'BioBrick cloning vector pSB4A5-I52002, complete sequence.'
p1301
sg12
(dp1302
g14
I1
sg15
S'BioBrick cloning vector pSB4A5-I52002'
p1303
sg17
(lp1304
S'other sequences'
p1305
aS'artificial sequences'
p1306
aS'vectors'
p1307
asg22
(lp1308
S''
asg24
(lp1309
g3
(g26
g5
NtRp1310
(dp1311
g29
S'Publication Status: Online-Only'
p1312
sg30
S'Engineering BioBrick vectors from BioBrick parts'
p1313
sg32
S''
sg33
S'J Biol Eng 2, 5 (2008)'
p1314
sg35
(lp1315
g3
(g53
g5
NtRp1316
(dp1317
g56
g3
(g57
g5
NtRp1318
(dp1319
g60
I4485
sg61
I0
sbsg62
g3
(g57
g5
NtRp1320
(dp1321
g60
I0
sg61
I0
sbsbasg37
S'18410688'
p1322
sg39
S'Shetty,R.P., Endy,D. and Knight,T.F. Jr.'
p1323
sg41
S''
sbag3
(g26
g5
NtRp1324
(dp1325
g29
S''
sg30
S'Direct Submission'
p1326
sg32
S''
sg33
S'Submitted (12-FEB-2008) Biological Engineering, MIT, 32 Vassar Street Room 32-311, Cambridge, MA 02139, USA'
p1327
sg35
(lp1328
g3
(g53
g5
NtRp1329
(dp1330
g56
g3
(g57
g5
NtRp1331
(dp1332
g60
I4485
sg61
I0
sbsg62
g3
(g57
g5
NtRp1333
(dp1334
g60
I0
sg61
I0
sbsbasg37
S''
sg39
S'Shetty,R.P., Endy,D. and Knight,T.F. Jr.'
p1335
sg41
S''
sbasg66
(lp1336
S'EU496098'
p1337
asg69
S'SYN'
p1338
sg71
S'21-APR-2008'
p1339
sg73
S'BioBrick cloning vector pSB4A5-I52002'
p1340
sg75
S'169921146'
p1341
ssg77
(lp1342
g3
(g79
g5
NtRp1343
(dp1344
g82
Nsg83
Nsg84
(lp1345
sg86
S''
sg87
g88
sg35
g3
(g53
g5
NtRp1346
(dp1347
g56
g3
(g57
g5
NtRp1348
(dp1349
g60
I4485
sg61
I0
sbsg62
g3
(g57
g5
NtRp1350
(dp1351
g60
I0
sg61
I0
sbsbsg95
S'source'
p1352
sg97
(dp1353
S'db_xref'
p1354
(lp1355
S'taxon:508434'
p1356
asS'mol_type'
p1357
(lp1358
S'other DNA'
p1359
asS'organism'
p1360
(lp1361
S'BioBrick cloning vector pSB4A5-I52002'
p1362
assg111
I1
sbag3
(g79
g5
NtRp1363
(dp1364
g82
Nsg83
Nsg84
(lp1365
sg86
S''
sg87
g88
sg35
g3
(g53
g5
NtRp1366
(dp1367
g56
g3
(g57
g5
NtRp1368
(dp1369
g60
I21
sg61
I0
sbsg62
g3
(g57
g5
NtRp1370
(dp1371
g60
I0
sg61
I0
sbsbsg95
S'misc_feature'
p1372
sg97
(dp1373
S'note'
p1374
(lp1375
S'BioBrick cloning site suffix (BBa_G00001)'
p1376
assg111
I1
sbag3
(g79
g5
NtRp1377
(dp1378
g82
Nsg83
Nsg84
(lp1379
sg86
S''
sg87
g88
sg35
g3
(g53
g5
NtRp1380
(dp1381
g56
g3
(g57
g5
NtRp1382
(dp1383
g60
I46
sg61
I0
sbsg62
g3
(g57
g5
NtRp1384
(dp1385
g60
I34
sg61
I0
sbsbsg95
S'misc_feature'
p1386
sg97
(dp1387
S'note'
p1388
(lp1389
S'translational stop sequence for BioBrick vector-insert insulation, has stop codons in all 6 reading frames (BBa_B0042)'
p1390
assg111
I1
sbag3
(g79
g5
NtRp1391
(dp1392
g82
Nsg83
Nsg84
(lp1393
sg86
S''
sg87
g88
sg35
g3
(g53
g5
NtRp1394
(dp1395
g56
g3
(g57
g5
NtRp1396
(dp1397
g60
I115
sg61
I0
sbsg62
g3
(g57
g5
NtRp1398
(dp1399
g60
I46
sg61
I0
sbsbsg95
S'terminator'
p1400
sg97
(dp1401
S'note'
p1402
(lp1403
S'derived from tonB terminator (BBa_B0054); similar to Escherichia coli strain MG1655 accession U00096'
p1404
assg111
I1
sbag3
(g79
g5
NtRp1405
(dp1406
g82
Nsg83
Nsg84
(lp1407
sg86
S''
sg87
g88
sg35
g3
(g53
g5
NtRp1408
(dp1409
g56
g3
(g57
g5
NtRp1410
(dp1411
g60
I88
sg61
I0
sbsg62
g3
(g57
g5
NtRp1412
(dp1413
g60
I56
sg61
I0
sbsbsg95
S'stem_loop'
p1414
sg97
(dp1415
S'note'
p1416
(lp1417
S'derived from tonB terminator, predicted using mFold'
p1418
assg111
I1
sbag3
(g79
g5
NtRp1419
(dp1420
g82
Nsg83
Nsg84
(lp1421
sg86
S''
sg87
g88
sg35
g3
(g53
g5
NtRp1422
(dp1423
g56
g3
(g57
g5
NtRp1424
(dp1425
g60
I135
sg61
I0
sbsg62
g3
(g57
g5
NtRp1426
(dp1427
g60
I115
sg61
I0
sbsbsg95
S'primer_bind'
p1428
sg97
(dp1429
S'note'
p1430
(lp1431
S'VR reverse sequencing primer annealing site (BBa_G00102)'
p1432
assg111
I-1
sbag3
(g79
g5
NtRp1433
(dp1434
g82
Nsg83
Nsg84
(lp1435
sg86
S''
sg87
g88
sg35
g3
(g53
g5
NtRp1436
(dp1437
g56
g3
(g57
g5
NtRp1438
(dp1439
g60
I176
sg61
I0
sbsg62
g3
(g57
g5
NtRp1440
(dp1441
g60
I135
sg61
I0
sbsbsg95
S'terminator'
p1442
sg97
(dp1443
S'note'
p1444
(lp1445
S'derived from ribosomal RNA rrnC operon, reverse orientation (BBa_B0062); similar to Escherichia coli strain MG1655 accession U00096'
p1446
assg111
I1
sbag3
(g79
g5
NtRp1447
(dp1448
g82
Nsg83
Nsg84
(lp1449
sg86
S''
sg87
g88
sg35
g3
(g53
g5
NtRp1450
(dp1451
g56
g3
(g57
g5
NtRp1452
(dp1453
g60
I168
sg61
I0
sbsg62
g3
(g57
g5
NtRp1454
(dp1455
g60
I148
sg61
I0
sbsbsg95
S'stem_loop'
p1456
sg97
(dp1457
S'note'
p1458
(lp1459
S'derived from ribosomal RNA rrnC operon'
p1460
assg111
I-1
sbag3
(g79
g5
NtRp1461
(dp1462
g82
Nsg83
Nsg84
(lp1463
sg86
S''
sg87
g88
sg35
g3
(g53
g5
NtRp1464
(dp1465
g56
g3
(g57
g5
NtRp1466
(dp1467
g60
I2220
sg61
I0
sbsg62
g3
(g57
g5
NtRp1468
(dp1469
g60
I183
sg61
I0
sbsbsg95
S'rep_origin'
p1470
sg97
(dp1471
S'note'
p1472
(lp1473
S'pSC101 low copy replication origin (BBa_I50042)'
p1474
assg111
I1
sbag3
(g79
g5
NtRp1475
(dp1476
g82
Nsg83
Nsg84
(lp1477
sg86
S''
sg87
g88
sg35
g3
(g53
g5
NtRp1478
(dp1479
g56
g3
(g57
g5
NtRp1480
(dp1481
g60
I687
sg61
I0
sbsg62
g3
(g57
g5
NtRp1482
(dp1483
g60
I319
sg61
I0
sbsbsg95
S'misc_feature'
p1484
sg97
(dp1485
S'note'
p1486
(lp1487
S'par region'
p1488
assg111
I1
sbag3
(g79
g5
NtRp1489
(dp1490
g82
Nsg83
Nsg84
(lp1491
sg86
S''
sg87
g88
sg35
g3
(g53
g5
NtRp1492
(dp1493
g56
g3
(g57
g5
NtRp1494
(dp1495
g60
I900
sg61
I0
sbsg62
g3
(g57
g5
NtRp1496
(dp1497
g60
I817
sg61
I0
sbsbsg95
S'misc_feature'
p1498
sg97
(dp1499
S'note'
p1500
(lp1501
S'AT rich region'
p1502
assg111
I1
sbag3
(g79
g5
NtRp1503
(dp1504
g82
Nsg83
Nsg84
(lp1505
sg86
S''
sg87
g88
sg35
g3
(g53
g5
NtRp1506
(dp1507
g56
g3
(g57
g5
NtRp1508
(dp1509
g60
I2019
sg61
I0
sbsg62
g3
(g57
g5
NtRp1510
(dp1511
g60
I1010
sg61
I0
sbsbsg95
S'gene'
p1512
sg97
(dp1513
S'gene'
p1514
(lp1515
S'rep101'
p1516
assg111
I1
sbag3
(g79
g5
NtRp1517
(dp1518
g82
Nsg83
Nsg84
(lp1519
sg86
S''
sg87
g88
sg35
g3
(g53
g5
NtRp1520
(dp1521
g56
g3
(g57
g5
NtRp1522
(dp1523
g60
I1016
sg61
I0
sbsg62
g3
(g57
g5
NtRp1524
(dp1525
g60
I1010
sg61
I0
sbsbsg95
S'-35_signal'
p1526
sg97
(dp1527
S'gene'
p1528
(lp1529
S'rep101'
p1530
assg111
I1
sbag3
(g79
g5
NtRp1531
(dp1532
g82
Nsg83
Nsg84
(lp1533
sg86
S''
sg87
g88
sg35
g3
(g53
g5
NtRp1534
(dp1535
g56
g3
(g57
g5
NtRp1536
(dp1537
g60
I1038
sg61
I0
sbsg62
g3
(g57
g5
NtRp1538
(dp1539
g60
I1032
sg61
I0
sbsbsg95
S'-10_signal'
p1540
sg97
(dp1541
S'gene'
p1542
(lp1543
S'rep101'
p1544
assg111
I1
sbag3
(g79
g5
NtRp1545
(dp1546
g82
Nsg83
Nsg84
(lp1547
sg86
S''
sg87
g88
sg35
g3
(g53
g5
NtRp1548
(dp1549
g56
g3
(g57
g5
NtRp1550
(dp1551
g60
I1065
sg61
I0
sbsg62
g3
(g57
g5
NtRp1552
(dp1553
g60
I1052
sg61
I0
sbsbsg95
S'RBS'
p1554
sg97
(dp1555
S'gene'
p1556
(lp1557
S'rep101'
p1558
assg111
I1
sbag3
(g79
g5
NtRp1559
(dp1560
g82
Nsg83
Nsg84
(lp1561
sg86
S''
sg87
g88
sg35
g3
(g53
g5
NtRp1562
(dp1563
g56
g3
(g57
g5
NtRp1564
(dp1565
g60
I1067
sg61
I0
sbsg62
g3
(g57
g5
NtRp1566
(dp1567
g60
I1061
sg61
I0
sbsbsg95
S'RBS'
p1568
sg97
(dp1569
S'gene'
p1570
(lp1571
S'rep101'
p1572
assg111
I1
sbag3
(g79
g5
NtRp1573
(dp1574
g82
Nsg83
Nsg84
(lp1575
sg86
S''
sg87
g88
sg35
g3
(g53
g5
NtRp1576
(dp1577
g56
g3
(g57
g5
NtRp1578
(dp1579
g60
I2019
sg61
I0
sbsg62
g3
(g57
g5
NtRp1580
(dp1581
g60
I1068
sg61
I0
sbsbsg95
S'CDS'
p1582
sg97
(dp1583
S'product'
p1584
(lp1585
S'Rep101'
p1586
asS'codon_start'
p1587
(lp1588
S'1'
asS'transl_table'
p1589
(lp1590
S'11'
p1591
asS'note'
p1592
(lp1593
S'involved in plasmid replication'
p1594
asS'db_xref'
p1595
(lp1596
S'GI:169921149'
p1597
asS'translation'
p1598
(lp1599
S'MSELVVFKANELAISRYDLTEHETKLILCCVALLNPTIENPTRKERTVSFTYNQYAQMMNISRENAYGVLAKATRELMTRTVEIRNPLVKGFEIFQWTNYAKFSSEKLELVFSEEILPYLFQLKKFIKYNLEHVKSFENKYSMRIYEWLLKELTQKKTHKANIEISLDEFKFMLMLENNYHEFKRLNQWVLKPISKDLNTYSNMKLVVDKRGRPTDTLIFQVELDRQMDLVTELENNQIKMNGDKIPTTITSDSYLRNGLRKTLHDALTAKIQLTSFEAKFLSDMQSKHDLNGSFSWLTQKQRTTLENILAKYGRI'
p1600
asS'gene'
p1601
(lp1602
S'rep101'
p1603
asS'protein_id'
p1604
(lp1605
S'ACB05486.1'
p1606
assg111
I1
sbag3
(g79
g5
NtRp1607
(dp1608
g82
Nsg83
Nsg84
(lp1609
sg86
S''
sg87
g88
sg35
g3
(g53
g5
NtRp1610
(dp1611
g56
g3
(g57
g5
NtRp1612
(dp1613
g60
I3171
sg61
I0
sbsg62
g3
(g57
g5
NtRp1614
(dp1615
g60
I2228
sg61
I0
sbsbsg95
S'misc_feature'
p1616
sg97
(dp1617
S'note'
p1618
(lp1619
S'bla ampicillin resistance marker (BBa_P1002)'
p1620
assg111
I1
sbag3
(g79
g5
NtRp1621
(dp1622
g82
Nsg83
Nsg84
(lp1623
sg86
S''
sg87
g88
sg35
g3
(g53
g5
NtRp1624
(dp1625
g56
g3
(g57
g5
NtRp1626
(dp1627
g60
I3168
sg61
I0
sbsg62
g3
(g57
g5
NtRp1628
(dp1629
g60
I2258
sg61
I0
sbsbsg95
S'gene'
p1630
sg97
(dp1631
S'gene'
p1632
(lp1633
S'bla'
p1634
assg111
I1
sbag3
(g79
g5
NtRp1635
(dp1636
g82
Nsg83
Nsg84
(lp1637
sg86
S''
sg87
g88
sg35
g3
(g53
g5
NtRp1638
(dp1639
g56
g3
(g57
g5
NtRp1640
(dp1641
g60
I2264
sg61
I0
sbsg62
g3
(g57
g5
NtRp1642
(dp1643
g60
I2258
sg61
I0
sbsbsg95
S'-35_signal'
p1644
sg97
(dp1645
S'gene'
p1646
(lp1647
S'bla'
p1648
assg111
I1
sbag3
(g79
g5
NtRp1649
(dp1650
g82
Nsg83
Nsg84
(lp1651
sg86
S''
sg87
g88
sg35
g3
(g53
g5
NtRp1652
(dp1653
g56
g3
(g57
g5
NtRp1654
(dp1655
g60
I2290
sg61
I0
sbsg62
g3
(g57
g5
NtRp1656
(dp1657
g60
I2284
sg61
I0
sbsbsg95
S'-10_signal'
p1658
sg97
(dp1659
S'gene'
p1660
(lp1661
S'bla'
p1662
assg111
I1
sbag3
(g79
g5
NtRp1663
(dp1664
g82
Nsg83
Nsg84
(lp1665
sg86
S''
sg87
g88
sg35
g3
(g53
g5
NtRp1666
(dp1667
g56
g3
(g57
g5
NtRp1668
(dp1669
g60
I2303
sg61
I0
sbsg62
g3
(g57
g5
NtRp1670
(dp1671
g60
I2298
sg61
I0
sbsbsg95
S'RBS'
p1672
sg97
(dp1673
S'gene'
p1674
(lp1675
S'bla'
p1676
assg111
I1
sbag3
(g79
g5
NtRp1677
(dp1678
g82
Nsg83
Nsg84
(lp1679
sg86
S''
sg87
g88
sg35
g3
(g53
g5
NtRp1680
(dp1681
g56
g3
(g57
g5
NtRp1682
(dp1683
g60
I3168
sg61
I0
sbsg62
g3
(g57
g5
NtRp1684
(dp1685
g60
I2307
sg61
I0
sbsbsg95
S'CDS'
p1686
sg97
(dp1687
S'product'
p1688
(lp1689
S'beta-lactamase'
p1690
asS'codon_start'
p1691
(lp1692
S'1'
asS'transl_table'
p1693
(lp1694
S'11'
p1695
asS'note'
p1696
(lp1697
S'confers resistance to ampicillin'
p1698
asS'db_xref'
p1699
(lp1700
S'GI:169921148'
p1701
asS'translation'
p1702
(lp1703
S'MSIQHFRVALIPFFAAFCLPVFAHPETLVKVKDAEDQLGARVGYIELDLNSGKILESFRPEERFPMMSTFKVLLCGAVLSRIDAGQEQLGRRIHYSQNDLVEYSPVTEKHLTDGMTVRELCSAAITMSDNTAANLLLTTIGGPKELTAFLHNMGDHVTRLDRWEPELNEAIPNDERDTTMPVAMATTLRKLLTGELLTLASRQQLIDWMEADKVAGPLLRSALPAGWFIADKSGAGERGSRGIIAALGPDGKPSRIVVIYTTGSQATMDERNRQIAEIGASLIKHW'
p1704
asS'gene'
p1705
(lp1706
S'bla'
p1707
asS'protein_id'
p1708
(lp1709
S'ACB05485.1'
p1710
assg111
I1
sbag3
(g79
g5
NtRp1711
(dp1712
g82
Nsg83
Nsg84
(lp1713
sg86
S''
sg87
g88
sg35
g3
(g53
g5
NtRp1714
(dp1715
g56
g3
(g57
g5
NtRp1716
(dp1717
g60
I3250
sg61
I0
sbsg62
g3
(g57
g5
NtRp1718
(dp1719
g60
I3178
sg61
I0
sbsbsg95
S'terminator'
p1720
sg97
(dp1721
S'note'
p1722
(lp1723
S'derived from hisI terminator (BBa_B0053); similar to Escherichia coli strain MG1655 accession U00096'
p1724
assg111
I1
sbag3
(g79
g5
NtRp1725
(dp1726
g82
Nsg83
Nsg84
(lp1727
sg86
S''
sg87
g88
sg35
g3
(g53
g5
NtRp1728
(dp1729
g56
g3
(g57
g5
NtRp1730
(dp1731
g60
I3221
sg61
I0
sbsg62
g3
(g57
g5
NtRp1732
(dp1733
g60
I3186
sg61
I0
sbsbsg95
S'stem_loop'
p1734
sg97
(dp1735
S'note'
p1736
(lp1737
S'derived from hisI terminator'
p1738
assg111
I1
sbag3
(g79
g5
NtRp1739
(dp1740
g82
Nsg83
Nsg84
(lp1741
sg86
S''
sg87
g88
sg35
g3
(g53
g5
NtRp1742
(dp1743
g56
g3
(g57
g5
NtRp1744
(dp1745
g60
I3270
sg61
I0
sbsg62
g3
(g57
g5
NtRp1746
(dp1747
g60
I3250
sg61
I0
sbsbsg95
S'primer_bind'
p1748
sg97
(dp1749
S'note'
p1750
(lp1751
S'VF2 forward sequencing primer annealing site (BBa_G00100)'
p1752
assg111
I1
sbag3
(g79
g5
NtRp1753
(dp1754
g82
Nsg83
Nsg84
(lp1755
sg86
S''
sg87
g88
sg35
g3
(g53
g5
NtRp1756
(dp1757
g56
g3
(g57
g5
NtRp1758
(dp1759
g60
I3348
sg61
I0
sbsg62
g3
(g57
g5
NtRp1760
(dp1761
g60
I3270
sg61
I0
sbsbsg95
S'terminator'
p1762
sg97
(dp1763
S'note'
p1764
(lp1765
S'derived from bacteriophage T3 terminator, reverse orientation (BBa_B0055); similar to bacteriophage T3 gene 1 to gene 11 (accession number X17255)'
p1766
assg111
I1
sbag3
(g79
g5
NtRp1767
(dp1768
g82
Nsg83
Nsg84
(lp1769
sg86
S''
sg87
g88
sg35
g3
(g53
g5
NtRp1770
(dp1771
g56
g3
(g57
g5
NtRp1772
(dp1773
g60
I3327
sg61
I0
sbsg62
g3
(g57
g5
NtRp1774
(dp1775
g60
I3305
sg61
I0
sbsbsg95
S'stem_loop'
p1776
sg97
(dp1777
S'note'
p1778
(lp1779
S'derived from bacteriophage T3 terminator'
p1780
assg111
I-1
sbag3
(g79
g5
NtRp1781
(dp1782
g82
Nsg83
Nsg84
(lp1783
sg86
S''
sg87
g88
sg35
g3
(g53
g5
NtRp1784
(dp1785
g56
g3
(g57
g5
NtRp1786
(dp1787
g60
I3360
sg61
I0
sbsg62
g3
(g57
g5
NtRp1788
(dp1789
g60
I3348
sg61
I0
sbsbsg95
S'misc_feature'
p1790
sg97
(dp1791
S'note'
p1792
(lp1793
S'translational stop sequence for BioBrick vector-insert insulation, has stop codons in all 6 reading frames (BBa_B0042)'
p1794
assg111
I1
sbag3
(g79
g5
NtRp1795
(dp1796
g82
Nsg83
Nsg84
(lp1797
sg86
S''
sg87
g88
sg35
g3
(g53
g5
NtRp1798
(dp1799
g56
g3
(g57
g5
NtRp1800
(dp1801
g60
I3395
sg61
I0
sbsg62
g3
(g57
g5
NtRp1802
(dp1803
g60
I3373
sg61
I0
sbsbsg95
S'misc_feature'
p1804
sg97
(dp1805
S'note'
p1806
(lp1807
S'BioBrick cloning site prefix (BBa_G00000)'
p1808
assg111
I1
sbag3
(g79
g5
NtRp1809
(dp1810
g82
Nsg83
Nsg84
(lp1811
sg86
S''
sg87
g88
sg35
g3
(g53
g5
NtRp1812
(dp1813
g56
g3
(g57
g5
NtRp1814
(dp1815
g60
I3811
sg61
I0
sbsg62
g3
(g57
g5
NtRp1816
(dp1817
g60
I3395
sg61
I0
sbsbsg95
S'misc_feature'
p1818
sg97
(dp1819
S'note'
p1820
(lp1821
S'ccdB positive selection marker (BBa_P1016)'
p1822
assg111
I1
sbag3
(g79
g5
NtRp1823
(dp1824
g82
Nsg83
Nsg84
(lp1825
sg86
S''
sg87
g88
sg35
g3
(g53
g5
NtRp1826
(dp1827
g56
g3
(g57
g5
NtRp1828
(dp1829
g60
I3808
sg61
I0
sbsg62
g3
(g57
g5
NtRp1830
(dp1831
g60
I3435
sg61
I0
sbsbsg95
S'gene'
p1832
sg97
(dp1833
S'gene'
p1834
(lp1835
S'ccdB'
p1836
assg111
I1
sbag3
(g79
g5
NtRp1837
(dp1838
g82
Nsg83
Nsg84
(lp1839
sg86
S''
sg87
g88
sg35
g3
(g53
g5
NtRp1840
(dp1841
g56
g3
(g57
g5
NtRp1842
(dp1843
g60
I3441
sg61
I0
sbsg62
g3
(g57
g5
NtRp1844
(dp1845
g60
I3435
sg61
I0
sbsbsg95
S'-35_signal'
p1846
sg97
(dp1847
S'gene'
p1848
(lp1849
S'ccdB'
p1850
assg111
I1
sbag3
(g79
g5
NtRp1851
(dp1852
g82
Nsg83
Nsg84
(lp1853
sg86
S''
sg87
g88
sg35
g3
(g53
g5
NtRp1854
(dp1855
g56
g3
(g57
g5
NtRp1856
(dp1857
g60
I3464
sg61
I0
sbsg62
g3
(g57
g5
NtRp1858
(dp1859
g60
I3458
sg61
I0
sbsbsg95
S'-10_signal'
p1860
sg97
(dp1861
S'gene'
p1862
(lp1863
S'ccdB'
p1864
assg111
I1
sbag3
(g79
g5
NtRp1865
(dp1866
g82
Nsg83
Nsg84
(lp1867
sg86
S''
sg87
g88
sg35
g3
(g53
g5
NtRp1868
(dp1869
g56
g3
(g57
g5
NtRp1870
(dp1871
g60
I3808
sg61
I0
sbsg62
g3
(g57
g5
NtRp1872
(dp1873
g60
I3502
sg61
I0
sbsbsg95
S'CDS'
p1874
sg97
(dp1875
S'product'
p1876
(lp1877
S'CcdB'
p1878
asS'codon_start'
p1879
(lp1880
S'1'
asS'transl_table'
p1881
(lp1882
S'11'
p1883
asS'note'
p1884
(lp1885
S'controlled cell death protein B; toxin protein that inhibits DNA gyrase which functions during DNA replication to catalyze negative supercoiling'
p1886
asS'db_xref'
p1887
(lp1888
S'GI:169921147'
p1889
asS'translation'
p1890
(lp1891
S'MQFKVYTYKRESRYRLFVDVQSDIIDTPGRRMVIPLASARLLSDKVSRELYPVVHIGDESWRMMTTDMASVPVSVIGEEVADLSHRENDIKNAINLMFWGI'
p1892
asS'gene'
p1893
(lp1894
S'ccdB'
p1895
asS'protein_id'
p1896
(lp1897
S'ACB05484.1'
p1898
assg111
I1
sbag3
(g79
g5
NtRp1899
(dp1900
g82
Nsg83
Nsg84
(lp1901
sg86
S''
sg87
g88
sg35
g3
(g53
g5
NtRp1902
(dp1903
g56
g3
(g57
g5
NtRp1904
(dp1905
g60
I4485
sg61
I0
sbsg62
g3
(g57
g5
NtRp1906
(dp1907
g60
I3811
sg61
I0
sbsbsg95
S'rep_origin'
p1908
sg97
(dp1909
S'note'
p1910
(lp1911
S'high copy replication origin derived from pUC19 accession M77789 (BBa_I50022)'
p1912
assg111
I1
sbag3
(g79
g5
NtRp1913
(dp1914
g82
Nsg83
Nsg84
(lp1915
sg86
S''
sg87
g88
sg35
g3
(g53
g5
NtRp1916
(dp1917
g56
g3
(g57
g5
NtRp1918
(dp1919
g60
I4426
sg61
I0
sbsg62
g3
(g57
g5
NtRp1920
(dp1921
g60
I3837
sg61
I0
sbsbsg95
S'gene'
p1922
sg97
(dp1923
S'gene'
p1924
(lp1925
S'RNAII'
p1926
assg111
I1
sbag3
(g79
g5
NtRp1927
(dp1928
g82
Nsg83
Nsg84
(lp1929
sg86
S''
sg87
g88
sg35
g3
(g53
g5
NtRp1930
(dp1931
g56
g3
(g57
g5
NtRp1932
(dp1933
g60
I3843
sg61
I0
sbsg62
g3
(g57
g5
NtRp1934
(dp1935
g60
I3837
sg61
I0
sbsbsg95
S'-35_signal'
p1936
sg97
(dp1937
S'gene'
p1938
(lp1939
S'RNAII'
p1940
assg111
I1
sbag3
(g79
g5
NtRp1941
(dp1942
g82
Nsg83
Nsg84
(lp1943
sg86
S''
sg87
g88
sg35
g3
(g53
g5
NtRp1944
(dp1945
g56
g3
(g57
g5
NtRp1946
(dp1947
g60
I3864
sg61
I0
sbsg62
g3
(g57
g5
NtRp1948
(dp1949
g60
I3858
sg61
I0
sbsbsg95
S'-10_signal'
p1950
sg97
(dp1951
S'gene'
p1952
(lp1953
S'RNAII'
p1954
assg111
I1
sbag3
(g79
g5
NtRp1955
(dp1956
g82
Nsg83
Nsg84
(lp1957
sg86
S''
sg87
g88
sg35
g3
(g53
g5
NtRp1958
(dp1959
g56
g3
(g57
g5
NtRp1960
(dp1961
g60
I4426
sg61
I0
sbsg62
g3
(g57
g5
NtRp1962
(dp1963
g60
I3873
sg61
I0
sbsbsg95
S'misc_RNA'
p1964
sg97
(dp1965
S'product'
p1966
(lp1967
S'RNAII'
p1968
asS'gene'
p1969
(lp1970
S'RNAII'
p1971
assg111
I1
sbag3
(g79
g5
NtRp1972
(dp1973
g82
Nsg83
Nsg84
(lp1974
sg86
S''
sg87
g88
sg35
g3
(g53
g5
NtRp1975
(dp1976
g56
g3
(g57
g5
NtRp1977
(dp1978
g60
I4020
sg61
I0
sbsg62
g3
(g57
g5
NtRp1979
(dp1980
g60
I3876
sg61
I0
sbsbsg95
S'gene'
p1981
sg97
(dp1982
S'gene'
p1983
(lp1984
S'RNAI'
p1985
assg111
I-1
sbag3
(g79
g5
NtRp1986
(dp1987
g82
Nsg83
Nsg84
(lp1988
sg86
S''
sg87
g88
sg35
g3
(g53
g5
NtRp1989
(dp1990
g56
g3
(g57
g5
NtRp1991
(dp1992
g60
I3984
sg61
I0
sbsg62
g3
(g57
g5
NtRp1993
(dp1994
g60
I3876
sg61
I0
sbsbsg95
S'misc_RNA'
p1995
sg97
(dp1996
S'product'
p1997
(lp1998
S'RNAI'
p1999
asS'gene'
p2000
(lp2001
S'RNAI'
p2002
assg111
I-1
sbag3
(g79
g5
NtRp2003
(dp2004
g82
Nsg83
Nsg84
(lp2005
sg86
S''
sg87
g88
sg35
g3
(g53
g5
NtRp2006
(dp2007
g56
g3
(g57
g5
NtRp2008
(dp2009
g60
I3998
sg61
I0
sbsg62
g3
(g57
g5
NtRp2010
(dp2011
g60
I3992
sg61
I0
sbsbsg95
S'-10_signal'
p2012
sg97
(dp2013
S'gene'
p2014
(lp2015
S'RNAI'
p2016
assg111
I-1
sbag3
(g79
g5
NtRp2017
(dp2018
g82
Nsg83
Nsg84
(lp2019
sg86
S''
sg87
g88
sg35
g3
(g53
g5
NtRp2020
(dp2021
g56
g3
(g57
g5
NtRp2022
(dp2023
g60
I4020
sg61
I0
sbsg62
g3
(g57
g5
NtRp2024
(dp2025
g60
I4014
sg61
I0
sbsbsg95
S'-35_signal'
p2026
sg97
(dp2027
S'gene'
p2028
(lp2029
S'RNAI'
p2030
assg111
I-1
sbasg1279
g3
(g1280
g5
NtRp2031
(dp2032
g1283
g1284
sg1286
S'TACTAGTAGCGGCCGCTGCAGGAGTCACTAAGGGTTAGTTAGTTAGATTAGCAGAAAGTCAAAAGCCTCCGACCGGAGGCTTTTGACTAAAACTTCCCTTGGGGTTATCATTGGGGCTCACTCAAAGGCGGTAATCAGATAAAAAAAATCCTTAGCTTTCGCTAAGGATGATTTCTGCTAGAGCTGTCAGACCAAGTTTACGAGCTCGCTTGGACTCCTGTTGATAGATCCAGTAATGACCTCAGAACTCCATCTGGATTTGTTCAGAACGCTCGGTTGCCGCCGGGCGTTTTTTATTGGTGAGAATCCAAGCACTAGGGACAGTAAGACGGGTAAGCCTGTTGATGATACCGCTGCCTTACTGGGTGCATTAGCCAGTCTGAATGACCTGTCACGGGATAATCCGAAGTGGTCAGACTGGAAAATCAGAGGGCAGGAACTGCTGAACAGCAAAAAGTCAGATAGCACCACATAGCAGACCCGCCATAAAACGCCCTGAGAAGCCCGTGACGGGCTTTTCTTGTATTATGGGTAGTTTCCTTGCATGAATCCATAAAAGGCGCCTGTAGTGCCATTTACCCCCATTCACTGCCAGAGCCGTGAGCGCAGCGAACTGAATGTCACGAAAAAGACAGCGACTCAGGTGCCTGATGGTCGGAGACAAAAGGAATATTCAGCGATTTGCCCGAGCTTGCGAGGGTGCTACTTAAGCCTTTAGGGTTTTAAGGTCTGTTTTGTAGAGGAGCAAACAGCGTTTGCGACATCCTTTTGTAATACTGCGGAACTGACTAAAGTAGTGAGTTATACACAGGGCTGGGATCTATTCTTTTTATCTTTTTTTATTCTTTCTTTATTCTATAAATTATAACCACTTGAATATAAACAAAAAAAACACACAAAGGTCTAGCGGAATTTACAGAGGGTCTAGCAGAATTTACAAGTTTTCCAGCAAAGGTCTAGCAGAATTTACAGATACCCACAACTCAAAGGAAAAGGACATGTAATTATCATTGACTAGCCCATCTCAATTGGTATAGTGATTAAAATCACCTAGACCAATTGAGATGTATGTCTGAATTAGTTGTTTTCAAAGCAAATGAACTAGCGATTAGTCGCTATGACTTAACGGAGCATGAAACCAAGCTAATTTTATGCTGTGTGGCACTACTCAACCCCACGATTGAAAACCCTACAAGGAAAGAACGGACGGTATCGTTCACTTATAACCAATACGCTCAGATGATGAACATCAGTAGGGAAAATGCTTATGGTGTATTAGCTAAAGCAACCAGAGAGCTGATGACGAGAACTGTGGAAATCAGGAATCCTTTGGTTAAAGGCTTTGAGATTTTCCAGTGGACAAACTATGCCAAGTTCTCAAGCGAAAAATTAGAATTAGTTTTTAGTGAAGAGATATTGCCTTATCTTTTCCAGTTAAAAAAATTCATAAAATATAATCTGGAACATGTTAAGTCTTTTGAAAACAAATACTCTATGAGGATTTATGAGTGGTTATTAAAAGAACTAACACAAAAGAAAACTCACAAGGCAAATATAGAGATTAGCCTTGATGAATTTAAGTTCATGTTAATGCTTGAAAATAACTACCATGAGTTTAAAAGGCTTAACCAATGGGTTTTGAAACCAATAAGTAAAGATTTAAACACTTACAGCAATATGAAATTGGTGGTTGATAAGCGAGGCCGCCCGACTGATACGTTGATTTTCCAAGTTGAACTAGATAGACAAATGGATCTCGTAACCGAACTTGAGAACAACCAGATAAAAATGAATGGTGACAAAATACCAACAACCATTACATCAGATTCCTACCTACGTAACGGACTAAGAAAAACACTACACGATGCTTTAACTGCAAAAATTCAGCTCACCAGTTTTGAGGCAAAATTTTTGAGTGACATGCAAAGTAAGCATGATCTCAATGGTTCGTTCTCATGGCTCACGCAAAAACAACGAACCACACTAGAGAACATACTGGCTAAATACGGAAGGATCTGAGGTTCTTATGGCTCTTGTATCTATCAGTGAAGCATCAAGACTAACAAACAAAAGTAGAACAACTGTTCACCGTTAGATATCAAAGGGAAAACTGTCCATATGCACAGATGAAAACGGTGTAAAAAAGATAGATACATCAGAGCTTTTACGAGTTTTTGGTGCATTTAAAGCTGTTCACCATGAACAGATCGACAATGTAACTACTAGAGCTAAATACATTCAAATATCTATCCGCTCATGAGACAATAACCCTGATAAATGCTTCAATAATATTGAAAAAGGAAGAATATGAGTATTCAACATTTCCGTGTCGCCCTTATTCCCTTTTTTGCGGCATTTTGCCTTCCTGTTTTTGCTCACCCAGAAACGCTGGTGAAAGTAAAAGATGCCGAAGATCAGTTGGGTGCACGTGTGGGTTACATCGAACTGGACCTCAACAGCGGTAAGATTCTTGAGAGTTTTCGCCCCGAAGAACGTTTCCCAATGATGAGCACTTTTAAAGTTCTGCTCTGTGGCGCGGTATTATCCCGTATTGACGCCGGGCAAGAGCAACTCGGTCGCCGCATACACTATTCTCAGAATGACTTGGTTGAGTACTCACCAGTCACAGAAAAGCATCTTACGGACGGCATGACAGTACGCGAATTATGCAGCGCTGCCATAACCATGAGTGATAACACGGCGGCCAACTTACTTCTGACAACGATCGGAGGACCGAAGGAGCTTACCGCTTTTTTGCACAACATGGGTGATCATGTAACTCGCCTTGATCGTTGGGAACCGGAGCTGAATGAAGCCATACCAAACGACGAGCGTGACACCACGATGCCTGTAGCTATGGCAACAACGTTGCGCAAACTCTTAACTGGCGAACTTCTTACTCTCGCTTCCCGGCAACAATTAATAGACTGGATGGAGGCGGATAAAGTTGCAGGACCACTTCTGCGCTCGGCCCTTCCGGCTGGCTGGTTTATTGCTGATAAATCTGGAGCCGGTGAGCGTGGGTCCCGCGGTATTATTGCAGCCCTGGGGCCAGATGGTAAGCCCTCCCGTATCGTAGTTATCTACACGACGGGGAGCCAGGCAACTATGGACGAACGTAATCGCCAGATCGCTGAGATAGGTGCCTCCCTGATTAAGCATTGGTAATAATACTAGCTCCGGCAAAAAAACGGGCAAGGTGTCACCACCCTGCCCTTTTTCTTTAAAACCGAAAAGATTACTTCGCGTTTGCCACCTGACGTCTAAGAAAAGGAATATTCAGCAATTTGCCCGTGCCGAAGAAAGGCCCACCCGTGAAGGTGAGCCAGTGAGTTGATTGCTACGTAATTAGTTAGTTAGCCCTTAGTGACTCGAATTCGCGGCCGCTTCTAGAGGGCTTACTAAAAGCCAGATAACAGTATGCGTATTTGCGCGCTGATTTTTGCGGTATAAGAATATATACTGATATGTATACCCGAAGTATGTCAAAAAGAGGTATGCTATGCAGTTTAAGGTTTACACCTATAAAAGAGAGAGCCGTTATCGTCTGTTTGTGGATGTACAGAGTGATATTATTGACACGCCCGGGCGACGGATGGTGATCCCCCTGGCCAGTGCACGTCTGCTGTCAGATAAAGTCTCCCGTGAACTTTACCCGGTGGTGCATATCGGGGATGAAAGCTGGCGCATGATGACCACCGATATGGCCAGTGTGCCGGTCTCCGTTATCGGGGAAGAAGTGGCTGATCTCAGCCACCGCGAAAATGACATCAAAAACGCCATTAACCTGATGTTCTGGGGAATATAATAACCCGTAGAAAAGATCAAAAGATCTTCTTGAGATCCTTTTTTTCTGCGCGTAATCTGCTACTTGCAAACAAAAAAACCACCGCTACCAGCGGTGGTTTGTTTGCCGGATCAAGAGCTACCAACTCTTTTTCCGAAGGTAACTGGCTTTAGCAGAGCGCAGATACCAAATACTGTCCTTCTAGTGTAGCCGTAGTTAGGCCACCACTTCAAGAACTCTGTAGCACCGCCTACATACCTCGCTCTGCTAATCCTGTTACCAGTGGCTGCTGCCAGTGGCGATAAGTCGTGTCTTACCGGGTTGGACTCAAGACGATAGTTACCGGATAAGGCGCAGCGGTCGGGCTGAACGGGGGGTTCGTGCACACAGCCCAGCTTGGAGCGAACGACCTACACCGAACTGAGATACCTACAGCGTGAGCTATGAGAAAGCGCCACGCTTCCCGAAGGGAGAAAGGCGGACAGGTATCCGGTAAGCGGCAGGGTCGGAACAGGAGAGCGCACGAGGGAGCTTCCAGGGGGAAACGCCTGGTATCTTTATAGTCCTGTCGGGTTTCGCCACCTCTGACTTGAGCGTCGATTTTTGTGATGCTCGTCAGGGGGGCGGAGCCTATGGAAAAACGCCAGCAACGCGGCCTTTTTACGGTTCCTGGCCTTTTGCTGGCCTTTTGCTCACAT'
p2033
sbsg1288
g3
(g1289
g1290
(dtRp2034
(dp2035
g1293
I4485
sbsg87
S'EU496098.1'
p2036
sg1295
S'EU496098'
p2037
sbsS'pGEX-3X'
p2038
g3
(g4
g5
NtRp2039
(dp2040
g8
(lp2041
sg10
S'pGEX-3X cloning vector, complete sequence.'
p2042
sg12
(dp2043
g14
I1
sg15
S'unidentified cloning vector'
p2044
sg17
(lp2045
S'other sequences'
p2046
aS'artificial sequences'
p2047
aS'vectors'
p2048
asg22
(lp2049
S'glutathione S-transferase'
p2050
aS'beta-lactamase'
p2051
aS'lac repressor'
p2052
asg24
(lp2053
g3
(g26
g5
NtRp2054
(dp2055
g29
S''
sg30
S'pGEX-3X: A cloning vector for the inducible expression of genes as glutathione S-transferase fusion proteins containing a factor Xa cleavage site'
p2056
sg32
S''
sg33
S'Unpublished (1994)'
p2057
sg35
(lp2058
g3
(g53
g5
NtRp2059
(dp2060
g56
g3
(g57
g5
NtRp2061
(dp2062
g60
I4952
sg61
I0
sbsg62
g3
(g57
g5
NtRp2063
(dp2064
g60
I0
sg61
I0
sbsbasg37
S''
sg39
S'Malone,J.A.'
p2065
sg41
S''
sbag3
(g26
g5
NtRp2066
(dp2067
g29
S''
sg30
S'Single-step purification of polypeptides expressed in Escherichia coli as fusions with glutathione S-transferase'
p2068
sg32
S''
sg33
S'Gene 67 (1), 31-40 (1988)'
p2069
sg35
(lp2070
g3
(g53
g5
NtRp2071
(dp2072
g56
g3
(g57
g5
NtRp2073
(dp2074
g60
I4952
sg61
I0
sbsg62
g3
(g57
g5
NtRp2075
(dp2076
g60
I0
sg61
I0
sbsbasg37
S'3047011'
p2077
sg39
S'Smith,D.B. and Johnson,K.S.'
p2078
sg41
S''
sbag3
(g26
g5
NtRp2079
(dp2080
g29
S''
sg30
S'Mr 26,000 antigen of Schistosoma japonicum recognized by resistant WEHI 129/J mice is a parasite glutathione S-transferase'
p2081
sg32
S''
sg33
S'Proc. Natl. Acad. Sci. U.S.A. 83 (22), 8703-8707 (1986)'
p2082
sg35
(lp2083
g3
(g53
g5
NtRp2084
(dp2085
g56
g3
(g57
g5
NtRp2086
(dp2087
g60
I911
sg61
I0
sbsg62
g3
(g57
g5
NtRp2088
(dp2089
g60
I263
sg61
I0
sbsbasg37
S'3095841'
p2090
sg39
S'Smith,D.B., Davern,K.M., Board,P.G., Tiu,W.U., Garcia,E.G. and Mitchell,G.F.'
p2091
sg41
S''
sbag3
(g26
g5
NtRp2092
(dp2093
g29
S''
sg30
S'Correction: Mr 26,000 antigen of Schistosoma japonicum recognized by resistant WEHI 129/J mice is a parasite glutathione S-transferase'
p2094
sg32
S''
sg33
S'Proc. Natl. Acad. Sci. U.S.A. 84, 6541-6541 (1987)'
p2095
sg35
(lp2096
g3
(g53
g5
NtRp2097
(dp2098
g56
g3
(g57
g5
NtRp2099
(dp2100
g60
I911
sg61
I0
sbsg62
g3
(g57
g5
NtRp2101
(dp2102
g60
I880
sg61
I0
sbsbasg37
S''
sg39
S'Smith,D.B., Davern,K.M., Board,P.G., Tiu,W.U., Garcia,E.G. and Mitchell,G.F.'
p2103
sg41
S''
sbag3
(g26
g5
NtRp2104
(dp2105
g29
S''
sg30
S'Direct Submission'
p2106
sg32
S''
sg33
S'Submitted (19-AUG-1994) James A. Malone, International Technical Services, Molecular Biology Reagents Division, Pharmacia Biotech Inc., 2202 N. Bartlett Ave., Milwaukee, WI 53202-1009, USA'
p2107
sg35
(lp2108
g3
(g53
g5
NtRp2109
(dp2110
g56
g3
(g57
g5
NtRp2111
(dp2112
g60
I4952
sg61
I0
sbsg62
g3
(g57
g5
NtRp2113
(dp2114
g60
I0
sg61
I0
sbsbasg37
S''
sg39
S'Malone,J.A.'
p2115
sg41
S''
sbasg66
(lp2116
S'U13852'
p2117
asg69
S'SYN'
p2118
sg71
S'13-DEC-1994'
p2119
sg73
S'unidentified cloning vector'
p2120
sg75
S'595717'
p2121
ssg77
(lp2122
g3
(g79
g5
NtRp2123
(dp2124
g82
Nsg83
Nsg84
(lp2125
sg86
S''
sg87
g88
sg35
g3
(g53
g5
NtRp2126
(dp2127
g56
g3
(g57
g5
NtRp2128
(dp2129
g60
I4952
sg61
I0
sbsg62
g3
(g57
g5
NtRp2130
(dp2131
g60
I0
sg61
I0
sbsbsg95
S'source'
p2132
sg97
(dp2133
S'db_xref'
p2134
(lp2135
S'taxon:45196'
p2136
asS'mol_type'
p2137
(lp2138
S'genomic DNA'
p2139
asS'organism'
p2140
(lp2141
S'unidentified cloning vector'
p2142
asS'lab_host'
p2143
(lp2144
S'Escherichia coli'
p2145
assg111
I1
sbag3
(g79
g5
NtRp2146
(dp2147
g82
Nsg83
Nsg84
(lp2148
sg86
S''
sg87
g88
sg35
g3
(g53
g5
NtRp2149
(dp2150
g56
g3
(g57
g5
NtRp2151
(dp2152
g60
I211
sg61
I0
sbsg62
g3
(g57
g5
NtRp2153
(dp2154
g60
I182
sg61
I0
sbsbsg95
S'promoter'
p2155
sg97
(dp2156
S'note'
p2157
(lp2158
S'tac promoter for inducible expression of glutathione S-transferase'
p2159
asS'standard_name'
p2160
(lp2161
S'tac'
p2162
assg111
I1
sbag3
(g79
g5
NtRp2163
(dp2164
g82
Nsg83
Nsg84
(lp2165
sg86
S''
sg87
g88
sg35
g3
(g53
g5
NtRp2166
(dp2167
g56
g3
(g57
g5
NtRp2168
(dp2169
g60
I237
sg61
I0
sbsg62
g3
(g57
g5
NtRp2170
(dp2171
g60
I216
sg61
I0
sbsbsg95
S'protein_bind'
p2172
sg97
(dp2173
S'bound_moiety'
p2174
(lp2175
S'lac repressor protein'
p2176
assg111
I1
sbag3
(g79
g5
NtRp2177
(dp2178
g82
Nsg83
Nsg84
(lp2179
sg86
S''
sg87
g88
sg35
g3
(g53
g5
NtRp2180
(dp2181
g56
g3
(g57
g5
NtRp2182
(dp2183
g60
I956
sg61
I0
sbsg62
g3
(g57
g5
NtRp2184
(dp2185
g60
I257
sg61
I0
sbsbsg95
S'CDS'
p2186
sg97
(dp2187
S'product'
p2188
(lp2189
S'glutathione S-transferase'
p2190
asS'codon_start'
p2191
(lp2192
S'1'
asS'citation'
p2193
(lp2194
S'[3]'
p2195
aS'[4]'
p2196
asS'transl_table'
p2197
(lp2198
S'11'
p2199
asS'db_xref'
p2200
(lp2201
S'GI:595718'
p2202
asS'translation'
p2203
(lp2204
S'MSPILGYWKIKGLVQPTRLLLEYLEEKYEEHLYERDEGDKWRNKKFELGLEFPNLPYYIDGDVKLTQSMAIIRYIADKHNMLGGCPKERAEISMLEGAVLDIRYGVSRIAYSKDFETLKVDFLSKLPEMLKMFEDRLCHKTYLNGDHVTHPDFMLYDALDVVLYMDPMCLDAFPKLVCFKKRIEAIPQIDKYLKSSKYIAWPLQGWQATFGGGDHPPKSDLIEGRGIPGNSS'
p2205
asS'protein_id'
p2206
(lp2207
S'AAA57095.1'
p2208
assg111
I1
sbag3
(g79
g5
NtRp2209
(dp2210
g82
Nsg83
Nsg84
(lp2211
sg86
S''
sg87
g88
sg35
g3
(g53
g5
NtRp2212
(dp2213
g56
g3
(g57
g5
NtRp2214
(dp2215
g60
I932
sg61
I0
sbsg62
g3
(g57
g5
NtRp2216
(dp2217
g60
I920
sg61
I0
sbsbsg95
S'misc_feature'
p2218
sg97
(dp2219
S'note'
p2220
(lp2221
S'encodes factor Xa recognition site'
p2222
assg111
I1
sbag3
(g79
g5
NtRp2223
(dp2224
g82
Nsg83
Nsg84
(lp2225
sg86
S''
sg87
g88
sg35
g3
(g53
g5
NtRp2226
(dp2227
g56
g3
(g57
g5
NtRp2228
(dp2229
g60
I949
sg61
I0
sbsg62
g3
(g57
g5
NtRp2230
(dp2231
g60
I933
sg61
I0
sbsbsg95
S'misc_feature'
p2232
sg97
(dp2233
S'note'
p2234
(lp2235
S'Multiple Cloning Site (MCS); contains the unique restriction sites BamHI, SmaI and EcoR I'
p2236
assg111
I1
sbag3
(g79
g5
NtRp2237
(dp2238
g82
Nsg83
Nsg84
(lp2239
sg86
S''
sg87
g88
sg35
g3
(g53
g5
NtRp2240
(dp2241
g56
g3
(g57
g5
NtRp2242
(dp2243
g60
I2220
sg61
I0
sbsg62
g3
(g57
g5
NtRp2244
(dp2245
g60
I1289
sg61
I0
sbsbsg95
S'gene'
p2246
sg97
(dp2247
S'gene'
p2248
(lp2249
S'bla'
p2250
assg111
I1
sbag3
(g79
g5
NtRp2251
(dp2252
g82
Nsg83
Nsg84
(lp2253
sg86
S''
sg87
g88
sg35
g3
(g53
g5
NtRp2254
(dp2255
g56
g3
(g57
g5
NtRp2256
(dp2257
g60
I1318
sg61
I0
sbsg62
g3
(g57
g5
NtRp2258
(dp2259
g60
I1289
sg61
I0
sbsbsg95
S'promoter'
p2260
sg97
(dp2261
S'gene'
p2262
(lp2263
S'bla'
p2264
assg111
I1
sbag3
(g79
g5
NtRp2265
(dp2266
g82
Nsg83
Nsg84
(lp2267
sg86
S''
sg87
g88
sg35
g3
(g53
g5
NtRp2268
(dp2269
g56
g3
(g57
g5
NtRp2270
(dp2271
g60
I2220
sg61
I0
sbsg62
g3
(g57
g5
NtRp2272
(dp2273
g60
I1359
sg61
I0
sbsbsg95
S'CDS'
p2274
sg97
(dp2275
S'product'
p2276
(lp2277
S'beta-lactamase'
p2278
asS'codon_start'
p2279
(lp2280
S'1'
asS'transl_table'
p2281
(lp2282
S'11'
p2283
asS'db_xref'
p2284
(lp2285
S'GI:595719'
p2286
asS'translation'
p2287
(lp2288
S'MSIQHFRVALIPFFAAFCLPVFAHPETLVKVKDAEDQLGARVGYIELDLNSGKILESFRPEERFPMMSTFKVLLCGAVLSRVDAGQEQLGRRIHYSQNDLVEYSPVTEKHLTDGMTVRELCSAAITMSDNTAANLLLTTIGGPKELTAFLHNMGDHVTRLDRWEPELNEAIPNDERDTTMPAAMATTLRKLLTGELLTLASRQQLIDWMEADKVAGPLLRSALPAGWFIADKSGAGERGSRGIIAALGPDGKPSRIVVIYTTGSQATMDERNRQIAEIGASLIKHW'
p2289
asS'gene'
p2290
(lp2291
S'bla'
p2292
asS'protein_id'
p2293
(lp2294
S'AAA57096.1'
p2295
assg111
I1
sbag3
(g79
g5
NtRp2296
(dp2297
g82
Nsg83
Nsg84
(lp2298
sg86
S''
sg87
g88
sg35
g3
(g53
g5
NtRp2299
(dp2300
g56
g3
(g57
g5
NtRp2301
(dp2302
g60
I2978
sg61
I0
sbsg62
g3
(g57
g5
NtRp2303
(dp2304
g60
I2977
sg61
I0
sbsbsg95
S'rep_origin'
p2305
sg97
(dp2306
S'note'
p2307
(lp2308
S'base 2978 represents the first base of the newly synthesized single strand'
p2309
asS'direction'
p2310
(lp2311
S'right'
p2312
assg111
I1
sbag3
(g79
g5
NtRp2313
(dp2314
g82
Nsg83
Nsg84
(lp2315
sg86
S''
sg87
g88
sg35
g3
(g53
g5
NtRp2316
(dp2317
g56
g3
(g57
g5
NtRp2318
(dp2319
g60
I4383
sg61
I0
sbsg62
g3
(g57
g5
NtRp2320
(dp2321
g60
I3300
sg61
I0
sbsbsg95
S'gene'
p2322
sg97
(dp2323
S'gene'
p2324
(lp2325
S'lacIq'
p2326
assg111
I1
sbag3
(g79
g5
NtRp2327
(dp2328
g82
Nsg83
Nsg84
(lp2329
sg86
S''
sg87
g88
sg35
g3
(g53
g5
NtRp2330
(dp2331
g56
g3
(g57
g5
NtRp2332
(dp2333
g60
I4383
sg61
I0
sbsg62
g3
(g57
g5
NtRp2334
(dp2335
g60
I3300
sg61
I0
sbsbsg95
S'CDS'
p2336
sg97
(dp2337
S'product'
p2338
(lp2339
S'lac repressor'
p2340
asS'codon_start'
p2341
(lp2342
S'1'
asS'transl_table'
p2343
(lp2344
S'11'
p2345
asS'db_xref'
p2346
(lp2347
S'GI:595720'
p2348
asS'translation'
p2349
(lp2350
S'MKPVTLYDVAEYAGVSYQTVSRVVNQASHVSAKTREKVEAAMAELNYIPNRVAQQLAGKQSLLIGVATSSLALHAPSQIVAAIKSRADQLGASVVVSMVERSGVEACKAAVHNLLAQRVSGLIINYPLDDQDAIAVEAACTNVPALFLDVSDQTPINSIIFSHEDGTRLGVEHLVALGHQQIALLAGPLSSVSARLRLAGWHKYLTRNQIQPIAEREGDWSAMSGFQQTMQMLNEGIVPTAMLVANDQMALGAMRAITESGLRVGADISVVGYDDTEDSSCYIPPLTTIKQDFRLLGQTSVDRLLQLSQGQAVKGNQLLPVSLVKRKTTLAPNTQTASPRALADSLMQLARQVSRLESGQ'
p2351
asS'gene'
p2352
(lp2353
S'lacIq'
p2354
asS'protein_id'
p2355
(lp2356
S'AAA57097.1'
p2357
assg111
I1
sbasg1279
g3
(g1280
g5
NtRp2358
(dp2359
g1283
g1284
sg1286
S'AGCTTATCGACTGCACGGTGCACCAATGCTTCTGGCGTCAGGCAGCCATCGGAAGCTGTGGTATGGCTGTGCAGGTCGTAAATCACTGCATAATTCGTGTCGCTCAAGGCGCACTCCCGTTCTGGATAATGTTTTTTGCGCCGACATCATAACGGTTCTGGCAAATATTCTGAAATGAGCTGTTGACAATTAATCATCGGCTCGTATAATGTGTGGAATTGTGAGCGGATAACAATTTCACACAGGAAACAGTATTCATGTCCCCTATACTAGGTTATTGGAAAATTAAGGGCCTTGTGCAACCCACTCGACTTCTTTTGGAATATCTTGAAGAAAAATATGAAGAGCATTTGTATGAGCGCGATGAAGGTGATAAATGGCGAAACAAAAAGTTTGAATTGGGTTTGGAGTTTCCCAATCTTCCTTATTATATTGATGGTGATGTTAAATTAACACAGTCTATGGCCATCATACGTTATATAGCTGACAAGCACAACATGTTGGGTGGTTGTCCAAAAGAGCGTGCAGAGATTTCAATGCTTGAAGGAGCGGTTTTGGATATTAGATACGGTGTTTCGAGAATTGCATATAGTAAAGACTTTGAAACTCTCAAAGTTGATTTTCTTAGCAAGCTACCTGAAATGCTGAAAATGTTCGAAGATCGTTTATGTCATAAAACATATTTAAATGGTGATCATGTAACCCATCCTGACTTCATGTTGTATGACGCTCTTGATGTTGTTTTATACATGGACCCAATGTGCCTGGATGCGTTCCCAAAATTAGTTTGTTTTAAAAAACGTATTGAAGCTATCCCACAAATTGATAAGTACTTGAAATCCAGCAAGTATATAGCATGGCCTTTGCAGGGCTGGCAAGCCACGTTTGGTGGTGGCGACCATCCTCCAAAATCGGATCTGATCGAAGGTCGTGGGATCCCCGGGAATTCATCGTGACTGACTGACGATCTGCCTCGCGCGTTTCGGTGATGACGGTGAAAACCTCTGACACATGCAGCTCCCGGAGACGGTCACAGCTTGTCTGTAAGCGGATGCCGGGAGCAGACAAGCCCGTCAGGGCGCGTCAGCGGGTGTTGGCGGGTGTCGGGGCGCAGCCATGACCCAGTCACGTAGCGATAGCGGAGTGTATAATTCTTGAAGACGAAAGGGCCTCGTGATACGCCTATTTTTATAGGTTAATGTCATGATAATAATGGTTTCTTAGACGTCAGGTGGCACTTTTCGGGGAAATGTGCGCGGAACCCCTATTTGTTTATTTTTCTAAATACATTCAAATATGTATCCGCTCATGAGACAATAACCCTGATAAATGCTTCAATAATATTGAAAAAGGAAGAGTATGAGTATTCAACATTTCCGTGTCGCCCTTATTCCCTTTTTTGCGGCATTTTGCCTTCCTGTTTTTGCTCACCCAGAAACGCTGGTGAAAGTAAAAGATGCTGAAGATCAGTTGGGTGCACGAGTGGGTTACATCGAACTGGATCTCAACAGCGGTAAGATCCTTGAGAGTTTTCGCCCCGAAGAACGTTTTCCAATGATGAGCACTTTTAAAGTTCTGCTATGTGGCGCGGTATTATCCCGTGTTGACGCCGGGCAAGAGCAACTCGGTCGCCGCATACACTATTCTCAGAATGACTTGGTTGAGTACTCACCAGTCACAGAAAAGCATCTTACGGATGGCATGACAGTAAGAGAATTATGCAGTGCTGCCATAACCATGAGTGATAACACTGCGGCCAACTTACTTCTGACAACGATCGGAGGACCGAAGGAGCTAACCGCTTTTTTGCACAACATGGGGGATCATGTAACTCGCCTTGATCGTTGGGAACCGGAGCTGAATGAAGCCATACCAAACGACGAGCGTGACACCACGATGCCTGCAGCAATGGCAACAACGTTGCGCAAACTATTAACTGGCGAACTACTTACTCTAGCTTCCCGGCAACAATTAATAGACTGGATGGAGGCGGATAAAGTTGCAGGACCACTTCTGCGCTCGGCCCTTCCGGCTGGCTGGTTTATTGCTGATAAATCTGGAGCCGGTGAGCGTGGGTCTCGCGGTATCATTGCAGCACTGGGGCCAGATGGTAAGCCCTCCCGTATCGTAGTTATCTACACGACGGGGAGTCAGGCAACTATGGATGAACGAAATAGACAGATCGCTGAGATAGGTGCCTCACTGATTAAGCATTGGTAACTGTCAGACCAAGTTTACTCATATATACTTTAGATTGATTTAAAACTTCATTTTTAATTTAAAAGGATCTAGGTGAAGATCCTTTTTGATAATCTCATGACCAAAATCCCTTAACGTGAGTTTTCGTTCCACTGAGCGTCAGACCCCGTAGAAAAGATCAAAGGATCTTCTTGAGATCCTTTTTTTCTGCGCGTAATCTGCTGCTTGCAAACAAAAAAACCACCGCTACCAGCGGTGGTTTGTTTGCCGGATCAAGAGCTACCAACTCTTTTTCCGAAGGTAACTGGCTTCAGCAGAGCGCAGATACCAAATACTGTCCTTCTAGTGTAGCCGTAGTTAGGCCACCACTTCAAGAACTCTGTAGCACCGCCTACATACCTCGCTCTGCTAATCCTGTTACCAGTGGCTGCTGCCAGTGGCGATAAGTCGTGTCTTACCGGGTTGGACTCAAGACGATAGTTACCGGATAAGGCGCAGCGGTCGGGCTGAACGGGGGGTTCGTGCACACAGCCCAGCTTGGAGCGAACGACCTACACCGAACTGAGATACCTACAGCGTGAGCTATGAGAAAGCGCCACGCTTCCCGAAGGGAGAAAGGCGGACAGGTATCCGGTAAGCGGCAGGGTCGGAACAGGAGAGCGCACGAGGGAGCTTCCAGGGGGAAACGCCTGGTATCTTTATAGTCCTGTCGGGTTTCGCCACCTCTGACTTGAGCGTCGATTTTTGTGATGCTCGTCAGGGGGGCGGAGCCTATGGAAAAACGCCAGCAACGCGGCCTTTTTACGGTTCCTGGCCTTTTGCTGGCCTTTTGCTCACATGTTCTTTCCTGCGTTATCCCCTGATTCTGTGGATAACCGTATTACCGCCTTTGAGTGAGCTGATACCGCTCGCCGCAGCCGAACGACCGAGCGCAGCGAGTCAGTGAGCGAGGAAGCGGAAGAGCGCCTGATGCGGTATTTTCTCCTTACGCATCTGTGCGGTATTTCACACCGCATAAATTCCGACACCATCGAATGGTGCAAAACCTTTCGCGGTATGGCATGATAGCGCCCGGAAGAGAGTCAATTCAGGGTGGTGAATGTGAAACCAGTAACGTTATACGATGTCGCAGAGTATGCCGGTGTCTCTTATCAGACCGTTTCCCGCGTGGTGAACCAGGCCAGCCACGTTTCTGCGAAAACGCGGGAAAAAGTGGAAGCGGCGATGGCGGAGCTGAATTACATTCCCAACCGCGTGGCACAACAACTGGCGGGCAAACAGTCGTTGCTGATTGGCGTTGCCACCTCCAGTCTGGCCCTGCACGCGCCGTCGCAAATTGTCGCGGCGATTAAATCTCGCGCCGATCAACTGGGTGCCAGCGTGGTGGTGTCGATGGTAGAACGAAGCGGCGTCGAAGCCTGTAAAGCGGCGGTGCACAATCTTCTCGCGCAACGCGTCAGTGGGCTGATCATTAACTATCCGCTGGATGACCAGGATGCCATTGCTGTGGAAGCTGCCTGCACTAATGTTCCGGCGTTATTTCTTGATGTCTCTGACCAGACACCCATCAACAGTATTATTTTCTCCCATGAAGACGGTACGCGACTGGGCGTGGAGCATCTGGTCGCATTGGGTCACCAGCAAATCGCGCTGTTAGCGGGCCCATTAAGTTCTGTCTCGGCGCGTCTGCGTCTGGCTGGCTGGCATAAATATCTCACTCGCAATCAAATTCAGCCGATAGCGGAACGGGAAGGCGACTGGAGTGCCATGTCCGGTTTTCAACAAACCATGCAAATGCTGAATGAGGGCATCGTTCCCACTGCGATGCTGGTTGCCAACGATCAGATGGCGCTGGGCGCAATGCGCGCCATTACCGAGTCCGGGCTGCGCGTTGGTGCGGATATCTCGGTAGTGGGATACGACGATACCGAAGACAGCTCATGTTATATCCCGCCGTTAACCACCATCAAACAGGATTTTCGCCTGCTGGGGCAAACCAGCGTGGACCGCTTGCTGCAACTCTCTCAGGGCCAGGCGGTGAAGGGCAATCAGCTGTTGCCCGTCTCACTGGTGAAAAGAAAAACCACCCTGGCGCCCAATACGCAAACCGCCTCTCCCCGCGCGTTGGCCGATTCATTAATGCAGCTGGCACGACAGGTTTCCCGACTGGAAAGCGGGCAGTGAGCGCAACGCAATTAATGTGAGTTAGCTCACTCATTAGGCACCCCAGGCTTTACACTTTATGCTTCCGGCTCGTATGTTGTGTGGAATTGTGAGCGGATAACAATTTCACACAGGAAACAGCTATGACCATGATTACGGATTCACTGGCCGTCGTTTTACAACGTCGTGACTGGGAAAACCCTGGCGTTACCCAACTTAATCGCCTTGCAGCACATCCCCCTTTCGCCAGCTGGCGTAATAGCGAAGAGGCCCGCACCGATCGCCCTTCCCAACAGTTGCGCAGCCTGAATGGCGAATGGCGCTTTGCCTGGTTTCCGGCACCAGAAGCGGTGCCGGAAAGCTGGCTGGAGTGCGATCTTCCTGAGGCCGATACTGTCGTCGTCCCCTCAAACTGGCAGATGCACGGTTACGATGCGCCCATCTACACCAACGTAACCTATCCCATTACGGTCAATCCGCCGTTTGTTCCCACGGAGAATCCGACGGGTTGTTACTCGCTCACATTTAATGTTGATGAAAGCTGGCTACAGGAAGGCCAGACGCGAATTATTTTTGATGGCGTTGGAATT'
p2360
sbsg1288
g3
(g1289
g1290
(dtRp2361
(dp2362
g1293
I4952
sbsg87
S'U13852.1'
p2363
sg1295
S'XXU13852'
p2364
sbsS'pSB3C5'
p2365
g3
(g4
g5
NtRp2366
(dp2367
g8
(lp2368
sg10
S'BioBrick cloning vector pSB3C5-I52001, complete sequence.'
p2369
sg12
(dp2370
g14
I1
sg15
S'BioBrick cloning vector pSB3C5-I52001'
p2371
sg17
(lp2372
S'other sequences'
p2373
aS'artificial sequences'
p2374
aS'vectors'
p2375
asg22
(lp2376
S''
asg24
(lp2377
g3
(g26
g5
NtRp2378
(dp2379
g29
S'Publication Status: Online-Only'
p2380
sg30
S'Engineering BioBrick vectors from BioBrick parts'
p2381
sg32
S''
sg33
S'J Biol Eng 2, 5 (2008)'
p2382
sg35
(lp2383
g3
(g53
g5
NtRp2384
(dp2385
g56
g3
(g57
g5
NtRp2386
(dp2387
g60
I3828
sg61
I0
sbsg62
g3
(g57
g5
NtRp2388
(dp2389
g60
I0
sg61
I0
sbsbasg37
S'18410688'
p2390
sg39
S'Shetty,R.P., Endy,D. and Knight,T.F. Jr.'
p2391
sg41
S''
sbag3
(g26
g5
NtRp2392
(dp2393
g29
S''
sg30
S'Direct Submission'
p2394
sg32
S''
sg33
S'Submitted (15-FEB-2008) Biological Engineering, MIT, 32 Vassar Street Room 32-311, Cambridge, MA 02139, USA'
p2395
sg35
(lp2396
g3
(g53
g5
NtRp2397
(dp2398
g56
g3
(g57
g5
NtRp2399
(dp2400
g60
I3828
sg61
I0
sbsg62
g3
(g57
g5
NtRp2401
(dp2402
g60
I0
sg61
I0
sbsbasg37
S''
sg39
S'Shetty,R.P., Endy,D. and Knight,T.F. Jr.'
p2403
sg41
S''
sbasg66
(lp2404
S'EU496103'
p2405
asg69
S'SYN'
p2406
sg71
S'21-APR-2008'
p2407
sg73
S'BioBrick cloning vector pSB3C5-I52001'
p2408
sg75
S'169921170'
p2409
ssg77
(lp2410
g3
(g79
g5
NtRp2411
(dp2412
g82
Nsg83
Nsg84
(lp2413
sg86
S''
sg87
g88
sg35
g3
(g53
g5
NtRp2414
(dp2415
g56
g3
(g57
g5
NtRp2416
(dp2417
g60
I3828
sg61
I0
sbsg62
g3
(g57
g5
NtRp2418
(dp2419
g60
I0
sg61
I0
sbsbsg95
S'source'
p2420
sg97
(dp2421
S'db_xref'
p2422
(lp2423
S'taxon:508431'
p2424
asS'mol_type'
p2425
(lp2426
S'other DNA'
p2427
asS'organism'
p2428
(lp2429
S'BioBrick cloning vector pSB3C5-I52001'
p2430
assg111
I1
sbag3
(g79
g5
NtRp2431
(dp2432
g82
Nsg83
Nsg84
(lp2433
sg86
S''
sg87
g88
sg35
g3
(g53
g5
NtRp2434
(dp2435
g56
g3
(g57
g5
NtRp2436
(dp2437
g60
I21
sg61
I0
sbsg62
g3
(g57
g5
NtRp2438
(dp2439
g60
I0
sg61
I0
sbsbsg95
S'misc_feature'
p2440
sg97
(dp2441
S'note'
p2442
(lp2443
S'BioBrick cloning site suffix (BBa_G00001)'
p2444
assg111
I1
sbag3
(g79
g5
NtRp2445
(dp2446
g82
Nsg83
Nsg84
(lp2447
sg86
S''
sg87
g88
sg35
g3
(g53
g5
NtRp2448
(dp2449
g56
g3
(g57
g5
NtRp2450
(dp2451
g60
I46
sg61
I0
sbsg62
g3
(g57
g5
NtRp2452
(dp2453
g60
I34
sg61
I0
sbsbsg95
S'misc_feature'
p2454
sg97
(dp2455
S'note'
p2456
(lp2457
S'translational stop sequence for BioBrick vector-insert insulation, has stop codons in all 6 reading frames (BBa_B0042)'
p2458
assg111
I1
sbag3
(g79
g5
NtRp2459
(dp2460
g82
Nsg83
Nsg84
(lp2461
sg86
S''
sg87
g88
sg35
g3
(g53
g5
NtRp2462
(dp2463
g56
g3
(g57
g5
NtRp2464
(dp2465
g60
I115
sg61
I0
sbsg62
g3
(g57
g5
NtRp2466
(dp2467
g60
I46
sg61
I0
sbsbsg95
S'terminator'
p2468
sg97
(dp2469
S'note'
p2470
(lp2471
S'derived from tonB terminator (BBa_B0054); similar to Escherichia coli strain MG1655 accession U00096'
p2472
assg111
I1
sbag3
(g79
g5
NtRp2473
(dp2474
g82
Nsg83
Nsg84
(lp2475
sg86
S''
sg87
g88
sg35
g3
(g53
g5
NtRp2476
(dp2477
g56
g3
(g57
g5
NtRp2478
(dp2479
g60
I88
sg61
I0
sbsg62
g3
(g57
g5
NtRp2480
(dp2481
g60
I56
sg61
I0
sbsbsg95
S'stem_loop'
p2482
sg97
(dp2483
S'note'
p2484
(lp2485
S'derived from tonB terminator, predicted using mFold'
p2486
assg111
I1
sbag3
(g79
g5
NtRp2487
(dp2488
g82
Nsg83
Nsg84
(lp2489
sg86
S''
sg87
g88
sg35
g3
(g53
g5
NtRp2490
(dp2491
g56
g3
(g57
g5
NtRp2492
(dp2493
g60
I135
sg61
I0
sbsg62
g3
(g57
g5
NtRp2494
(dp2495
g60
I115
sg61
I0
sbsbsg95
S'primer_bind'
p2496
sg97
(dp2497
S'note'
p2498
(lp2499
S'VR reverse sequencing primer annealing site (BBa_G00102)'
p2500
assg111
I-1
sbag3
(g79
g5
NtRp2501
(dp2502
g82
Nsg83
Nsg84
(lp2503
sg86
S''
sg87
g88
sg35
g3
(g53
g5
NtRp2504
(dp2505
g56
g3
(g57
g5
NtRp2506
(dp2507
g60
I176
sg61
I0
sbsg62
g3
(g57
g5
NtRp2508
(dp2509
g60
I135
sg61
I0
sbsbsg95
S'terminator'
p2510
sg97
(dp2511
S'note'
p2512
(lp2513
S'derived from ribosomal RNA rrnC operon, reverse orientation (BBa_B0062); similar to Escherichia coli strain MG1655 accession U00096'
p2514
assg111
I1
sbag3
(g79
g5
NtRp2515
(dp2516
g82
Nsg83
Nsg84
(lp2517
sg86
S''
sg87
g88
sg35
g3
(g53
g5
NtRp2518
(dp2519
g56
g3
(g57
g5
NtRp2520
(dp2521
g60
I168
sg61
I0
sbsg62
g3
(g57
g5
NtRp2522
(dp2523
g60
I148
sg61
I0
sbsbsg95
S'stem_loop'
p2524
sg97
(dp2525
S'note'
p2526
(lp2527
S'derived from ribosomal RNA rrnC operon'
p2528
assg111
I-1
sbag3
(g79
g5
NtRp2529
(dp2530
g82
Nsg83
Nsg84
(lp2531
sg86
S''
sg87
g88
sg35
g3
(g53
g5
NtRp2532
(dp2533
g56
g3
(g57
g5
NtRp2534
(dp2535
g60
I1737
sg61
I0
sbsg62
g3
(g57
g5
NtRp2536
(dp2537
g60
I183
sg61
I0
sbsbsg95
S'rep_origin'
p2538
sg97
(dp2539
S'note'
p2540
(lp2541
S'p15A low to medium copy replication origin (BBa_I50032)'
p2542
assg111
I1
sbag3
(g79
g5
NtRp2543
(dp2544
g82
Nsg83
Nsg84
(lp2545
sg86
S''
sg87
g88
sg35
g3
(g53
g5
NtRp2546
(dp2547
g56
g3
(g57
g5
NtRp2548
(dp2549
g60
I1406
sg61
I0
sbsg62
g3
(g57
g5
NtRp2550
(dp2551
g60
I581
sg61
I0
sbsbsg95
S'rep_origin'
p2552
sg97
(dp2553
S'note'
p2554
(lp2555
S'p15A replication origin'
p2556
assg111
I1
sbag3
(g79
g5
NtRp2557
(dp2558
g82
Nsg83
Nsg84
(lp2559
sg86
S''
sg87
g88
sg35
g3
(g53
g5
NtRp2560
(dp2561
g56
g3
(g57
g5
NtRp2562
(dp2563
g60
I2511
sg61
I0
sbsg62
g3
(g57
g5
NtRp2564
(dp2565
g60
I1851
sg61
I0
sbsbsg95
S'gene'
p2566
sg97
(dp2567
S'gene'
p2568
(lp2569
S'cat'
p2570
assg111
I1
sbag3
(g79
g5
NtRp2571
(dp2572
g82
Nsg83
Nsg84
(lp2573
sg86
S''
sg87
g88
sg35
g3
(g53
g5
NtRp2574
(dp2575
g56
g3
(g57
g5
NtRp2576
(dp2577
g60
I2511
sg61
I0
sbsg62
g3
(g57
g5
NtRp2578
(dp2579
g60
I1851
sg61
I0
sbsbsg95
S'CDS'
p2580
sg97
(dp2581
S'product'
p2582
(lp2583
S'chloramphenicol acetyl transferase'
p2584
asS'codon_start'
p2585
(lp2586
S'1'
asS'transl_table'
p2587
(lp2588
S'11'
p2589
asS'note'
p2590
(lp2591
S'confers resistance to chloramphenicol'
p2592
asS'db_xref'
p2593
(lp2594
S'GI:169921171'
p2595
asS'translation'
p2596
(lp2597
S'MEKKITGYTTVDISQWHRKEHFEAFQSVAQCTYNQTVQLDITAFLKTVKKNKHKFYPAFIHILARLMNAHPEFRMAMKDGELVIWDSVHPCYTVFHEQTETFSSLWSEYHDDFRQFLHIYSQDVACYGENLAYFPKGFIENMFFVSANPWVSFTSFDLNVANMDNFFAPVFTMGKYYTQGDKVLMPLAIQVHHAVCDGFHVGRMLNELQQYCDEWQGGA'
p2598
asS'gene'
p2599
(lp2600
S'cat'
p2601
asS'protein_id'
p2602
(lp2603
S'ACB05498.1'
p2604
assg111
I1
sbag3
(g79
g5
NtRp2605
(dp2606
g82
Nsg83
Nsg84
(lp2607
sg86
S''
sg87
g88
sg35
g3
(g53
g5
NtRp2608
(dp2609
g56
g3
(g57
g5
NtRp2610
(dp2611
g60
I2593
sg61
I0
sbsg62
g3
(g57
g5
NtRp2612
(dp2613
g60
I2521
sg61
I0
sbsbsg95
S'terminator'
p2614
sg97
(dp2615
S'note'
p2616
(lp2617
S'derived from hisI terminator (BBa_B0053); similar to Escherichia coli strain MG1655 accession U00096'
p2618
assg111
I1
sbag3
(g79
g5
NtRp2619
(dp2620
g82
Nsg83
Nsg84
(lp2621
sg86
S''
sg87
g88
sg35
g3
(g53
g5
NtRp2622
(dp2623
g56
g3
(g57
g5
NtRp2624
(dp2625
g60
I2564
sg61
I0
sbsg62
g3
(g57
g5
NtRp2626
(dp2627
g60
I2529
sg61
I0
sbsbsg95
S'stem_loop'
p2628
sg97
(dp2629
S'note'
p2630
(lp2631
S'derived from hisI terminator'
p2632
assg111
I1
sbag3
(g79
g5
NtRp2633
(dp2634
g82
Nsg83
Nsg84
(lp2635
sg86
S''
sg87
g88
sg35
g3
(g53
g5
NtRp2636
(dp2637
g56
g3
(g57
g5
NtRp2638
(dp2639
g60
I2613
sg61
I0
sbsg62
g3
(g57
g5
NtRp2640
(dp2641
g60
I2593
sg61
I0
sbsbsg95
S'primer_bind'
p2642
sg97
(dp2643
S'note'
p2644
(lp2645
S'VF2 forward sequencing primer annealing site (BBa_G00100)'
p2646
assg111
I1
sbag3
(g79
g5
NtRp2647
(dp2648
g82
Nsg83
Nsg84
(lp2649
sg86
S''
sg87
g88
sg35
g3
(g53
g5
NtRp2650
(dp2651
g56
g3
(g57
g5
NtRp2652
(dp2653
g60
I2691
sg61
I0
sbsg62
g3
(g57
g5
NtRp2654
(dp2655
g60
I2613
sg61
I0
sbsbsg95
S'terminator'
p2656
sg97
(dp2657
S'note'
p2658
(lp2659
S'derived from bacteriophage T3 terminator, reverse orientation (BBa_B0055); similar to bacteriophage T3 gene 1 to gene 11 (accession number X17255)'
p2660
assg111
I1
sbag3
(g79
g5
NtRp2661
(dp2662
g82
Nsg83
Nsg84
(lp2663
sg86
S''
sg87
g88
sg35
g3
(g53
g5
NtRp2664
(dp2665
g56
g3
(g57
g5
NtRp2666
(dp2667
g60
I2670
sg61
I0
sbsg62
g3
(g57
g5
NtRp2668
(dp2669
g60
I2648
sg61
I0
sbsbsg95
S'stem_loop'
p2670
sg97
(dp2671
S'note'
p2672
(lp2673
S'derived from bacteriophage T3 terminator'
p2674
assg111
I-1
sbag3
(g79
g5
NtRp2675
(dp2676
g82
Nsg83
Nsg84
(lp2677
sg86
S''
sg87
g88
sg35
g3
(g53
g5
NtRp2678
(dp2679
g56
g3
(g57
g5
NtRp2680
(dp2681
g60
I2703
sg61
I0
sbsg62
g3
(g57
g5
NtRp2682
(dp2683
g60
I2691
sg61
I0
sbsbsg95
S'misc_feature'
p2684
sg97
(dp2685
S'note'
p2686
(lp2687
S'translational stop sequence for BioBrick vector-insert insulation, has stop codons in all 6 reading frames (BBa_B0042)'
p2688
assg111
I1
sbag3
(g79
g5
NtRp2689
(dp2690
g82
Nsg83
Nsg84
(lp2691
sg86
S''
sg87
g88
sg35
g3
(g53
g5
NtRp2692
(dp2693
g56
g3
(g57
g5
NtRp2694
(dp2695
g60
I2738
sg61
I0
sbsg62
g3
(g57
g5
NtRp2696
(dp2697
g60
I2716
sg61
I0
sbsbsg95
S'misc_feature'
p2698
sg97
(dp2699
S'note'
p2700
(lp2701
S'BioBrick cloning site prefix (BBa_G00000)'
p2702
assg111
I1
sbag3
(g79
g5
NtRp2703
(dp2704
g82
Nsg83
Nsg84
(lp2705
sg86
S''
sg87
g88
sg35
g3
(g53
g5
NtRp2706
(dp2707
g56
g3
(g57
g5
NtRp2708
(dp2709
g60
I3154
sg61
I0
sbsg62
g3
(g57
g5
NtRp2710
(dp2711
g60
I2738
sg61
I0
sbsbsg95
S'misc_feature'
p2712
sg97
(dp2713
S'note'
p2714
(lp2715
S'ccdB positive selection marker (BBa_P1016)'
p2716
assg111
I1
sbag3
(g79
g5
NtRp2717
(dp2718
g82
Nsg83
Nsg84
(lp2719
sg86
S''
sg87
g88
sg35
g3
(g53
g5
NtRp2720
(dp2721
g56
g3
(g57
g5
NtRp2722
(dp2723
g60
I3151
sg61
I0
sbsg62
g3
(g57
g5
NtRp2724
(dp2725
g60
I2778
sg61
I0
sbsbsg95
S'gene'
p2726
sg97
(dp2727
S'gene'
p2728
(lp2729
S'ccdB'
p2730
assg111
I1
sbag3
(g79
g5
NtRp2731
(dp2732
g82
Nsg83
Nsg84
(lp2733
sg86
S''
sg87
g88
sg35
g3
(g53
g5
NtRp2734
(dp2735
g56
g3
(g57
g5
NtRp2736
(dp2737
g60
I2784
sg61
I0
sbsg62
g3
(g57
g5
NtRp2738
(dp2739
g60
I2778
sg61
I0
sbsbsg95
S'-35_signal'
p2740
sg97
(dp2741
S'gene'
p2742
(lp2743
S'ccdB'
p2744
assg111
I1
sbag3
(g79
g5
NtRp2745
(dp2746
g82
Nsg83
Nsg84
(lp2747
sg86
S''
sg87
g88
sg35
g3
(g53
g5
NtRp2748
(dp2749
g56
g3
(g57
g5
NtRp2750
(dp2751
g60
I2807
sg61
I0
sbsg62
g3
(g57
g5
NtRp2752
(dp2753
g60
I2801
sg61
I0
sbsbsg95
S'-10_signal'
p2754
sg97
(dp2755
S'gene'
p2756
(lp2757
S'ccdB'
p2758
assg111
I1
sbag3
(g79
g5
NtRp2759
(dp2760
g82
Nsg83
Nsg84
(lp2761
sg86
S''
sg87
g88
sg35
g3
(g53
g5
NtRp2762
(dp2763
g56
g3
(g57
g5
NtRp2764
(dp2765
g60
I3151
sg61
I0
sbsg62
g3
(g57
g5
NtRp2766
(dp2767
g60
I2845
sg61
I0
sbsbsg95
S'CDS'
p2768
sg97
(dp2769
S'product'
p2770
(lp2771
S'CcdB'
p2772
asS'codon_start'
p2773
(lp2774
S'1'
asS'transl_table'
p2775
(lp2776
S'11'
p2777
asS'note'
p2778
(lp2779
S'controlled cell death protein B; toxin protein that inhibits DNA gyrase which functions during DNA replication to catalyze negative supercoiling'
p2780
asS'db_xref'
p2781
(lp2782
S'GI:169921172'
p2783
asS'translation'
p2784
(lp2785
S'MQFKVYTYKRESRYRLFVDVQSDIIDTPGRRMVIPLASARLLSDKVSRELYPVVHIGDESWRMMTTDMASVPVSVIGEEVADLSHRENDIKNAINLMFWGI'
p2786
asS'gene'
p2787
(lp2788
S'ccdB'
p2789
asS'protein_id'
p2790
(lp2791
S'ACB05499.1'
p2792
assg111
I1
sbag3
(g79
g5
NtRp2793
(dp2794
g82
Nsg83
Nsg84
(lp2795
sg86
S''
sg87
g88
sg35
g3
(g53
g5
NtRp2796
(dp2797
g56
g3
(g57
g5
NtRp2798
(dp2799
g60
I3828
sg61
I0
sbsg62
g3
(g57
g5
NtRp2800
(dp2801
g60
I3154
sg61
I0
sbsbsg95
S'misc_feature'
p2802
sg97
(dp2803
S'note'
p2804
(lp2805
S'nonfunctional high copy replication origin derived from pUC19 accession M77789 (BBa_I50020)'
p2806
assg111
I1
sbag3
(g79
g5
NtRp2807
(dp2808
g82
Nsg83
Nsg84
(lp2809
sg86
S''
sg87
g88
sg35
g3
(g53
g5
NtRp2810
(dp2811
g56
g3
(g57
g5
NtRp2812
(dp2813
g60
I3769
sg61
I0
sbsg62
g3
(g57
g5
NtRp2814
(dp2815
g60
I3180
sg61
I0
sbsbsg95
S'gene'
p2816
sg97
(dp2817
S'gene'
p2818
(lp2819
S'RNAII'
p2820
assg111
I1
sbag3
(g79
g5
NtRp2821
(dp2822
g82
Nsg83
Nsg84
(lp2823
sg86
S''
sg87
g88
sg35
g3
(g53
g5
NtRp2824
(dp2825
g56
g3
(g57
g5
NtRp2826
(dp2827
g60
I3186
sg61
I0
sbsg62
g3
(g57
g5
NtRp2828
(dp2829
g60
I3180
sg61
I0
sbsbsg95
S'-35_signal'
p2830
sg97
(dp2831
S'gene'
p2832
(lp2833
S'RNAII'
p2834
assg111
I1
sbag3
(g79
g5
NtRp2835
(dp2836
g82
Nsg83
Nsg84
(lp2837
sg86
S''
sg87
g88
sg35
g3
(g53
g5
NtRp2838
(dp2839
g56
g3
(g57
g5
NtRp2840
(dp2841
g60
I3207
sg61
I0
sbsg62
g3
(g57
g5
NtRp2842
(dp2843
g60
I3201
sg61
I0
sbsbsg95
S'-10_signal'
p2844
sg97
(dp2845
S'gene'
p2846
(lp2847
S'RNAII'
p2848
assg111
I1
sbag3
(g79
g5
NtRp2849
(dp2850
g82
Nsg83
Nsg84
(lp2851
sg86
S''
sg87
g88
sg35
g3
(g53
g5
NtRp2852
(dp2853
g56
g3
(g57
g5
NtRp2854
(dp2855
g60
I3769
sg61
I0
sbsg62
g3
(g57
g5
NtRp2856
(dp2857
g60
I3216
sg61
I0
sbsbsg95
S'misc_RNA'
p2858
sg97
(dp2859
S'product'
p2860
(lp2861
S'RNAII'
p2862
asS'gene'
p2863
(lp2864
S'RNAII'
p2865
assg111
I1
sbag3
(g79
g5
NtRp2866
(dp2867
g82
Nsg83
Nsg84
(lp2868
sg86
S''
sg87
g88
sg35
g3
(g53
g5
NtRp2869
(dp2870
g56
g3
(g57
g5
NtRp2871
(dp2872
g60
I3363
sg61
I0
sbsg62
g3
(g57
g5
NtRp2873
(dp2874
g60
I3219
sg61
I0
sbsbsg95
S'gene'
p2875
sg97
(dp2876
S'gene'
p2877
(lp2878
S'RNAI'
p2879
assg111
I-1
sbag3
(g79
g5
NtRp2880
(dp2881
g82
Nsg83
Nsg84
(lp2882
sg86
S''
sg87
g88
sg35
g3
(g53
g5
NtRp2883
(dp2884
g56
g3
(g57
g5
NtRp2885
(dp2886
g60
I3327
sg61
I0
sbsg62
g3
(g57
g5
NtRp2887
(dp2888
g60
I3219
sg61
I0
sbsbsg95
S'misc_RNA'
p2889
sg97
(dp2890
S'product'
p2891
(lp2892
S'RNAI'
p2893
asS'gene'
p2894
(lp2895
S'RNAI'
p2896
assg111
I-1
sbag3
(g79
g5
NtRp2897
(dp2898
g82
Nsg83
Nsg84
(lp2899
sg86
S''
sg87
g88
sg35
g3
(g53
g5
NtRp2900
(dp2901
g56
g3
(g57
g5
NtRp2902
(dp2903
g60
I3341
sg61
I0
sbsg62
g3
(g57
g5
NtRp2904
(dp2905
g60
I3335
sg61
I0
sbsbsg95
S'-10_signal'
p2906
sg97
(dp2907
S'gene'
p2908
(lp2909
S'RNAI'
p2910
assg111
I-1
sbag3
(g79
g5
NtRp2911
(dp2912
g82
Nsg83
Nsg84
(lp2913
sg86
S''
sg87
g88
sg35
g3
(g53
g5
NtRp2914
(dp2915
g56
g3
(g57
g5
NtRp2916
(dp2917
g60
I3363
sg61
I0
sbsg62
g3
(g57
g5
NtRp2918
(dp2919
g60
I3357
sg61
I0
sbsbsg95
S'-35_signal'
p2920
sg97
(dp2921
S'gene'
p2922
(lp2923
S'RNAI'
p2924
assg111
I-1
sbag3
(g79
g5
NtRp2925
(dp2926
g82
Nsg83
Nsg84
(lp2927
sg86
S''
sg87
g88
sg35
g3
(g53
g5
NtRp2928
(dp2929
g56
g3
(g57
g5
NtRp2930
(dp2931
g60
I3415
sg61
I0
sbsg62
g3
(g57
g5
NtRp2932
(dp2933
g60
I3414
sg61
I0
sbsbsg95
S'misc_difference'
p2934
sg97
(dp2935
S'note'
p2936
(lp2937
S'G to A mutation to eliminate TspRI endonuclease site, renders BBa_I50020 nonfunctional as a replication origin'
p2938
asS'gene'
p2939
(lp2940
S'RNAII'
p2941
asS'replace'
p2942
(lp2943
S'g'
assg111
I1
sbag3
(g79
g5
NtRp2944
(dp2945
g82
Nsg83
Nsg84
(lp2946
sg86
S''
sg87
g88
sg35
g3
(g53
g5
NtRp2947
(dp2948
g56
g3
(g57
g5
NtRp2949
(dp2950
g60
I3419
sg61
I0
sbsg62
g3
(g57
g5
NtRp2951
(dp2952
g60
I3418
sg61
I0
sbsbsg95
S'misc_difference'
p2953
sg97
(dp2954
S'note'
p2955
(lp2956
S'G to A mutation to eliminate EcoP15I endonuclease site, renders BBa_I50020 nonfunctional as a replication origin'
p2957
asS'gene'
p2958
(lp2959
S'RNAII'
p2960
asS'replace'
p2961
(lp2962
S'g'
assg111
I1
sbag3
(g79
g5
NtRp2963
(dp2964
g82
Nsg83
Nsg84
(lp2965
sg86
S''
sg87
g88
sg35
g3
(g53
g5
NtRp2966
(dp2967
g56
g3
(g57
g5
NtRp2968
(dp2969
g60
I3428
sg61
I0
sbsg62
g3
(g57
g5
NtRp2970
(dp2971
g60
I3427
sg61
I0
sbsbsg95
S'misc_difference'
p2972
sg97
(dp2973
S'note'
p2974
(lp2975
S'G to A mutation to eliminate TspRI endonuclease site, renders BBa_I50020 nonfunctional as a replication origin'
p2976
asS'gene'
p2977
(lp2978
S'RNAII'
p2979
asS'replace'
p2980
(lp2981
S'g'
assg111
I1
sbag3
(g79
g5
NtRp2982
(dp2983
g82
Nsg83
Nsg84
(lp2984
sg86
S''
sg87
g88
sg35
g3
(g53
g5
NtRp2985
(dp2986
g56
g3
(g57
g5
NtRp2987
(dp2988
g60
I3457
sg61
I0
sbsg62
g3
(g57
g5
NtRp2989
(dp2990
g60
I3456
sg61
I0
sbsbsg95
S'misc_difference'
p2991
sg97
(dp2992
S'note'
p2993
(lp2994
S'C to T mutation to eliminate Nt.NstNBI endonuclease site, renders BBa_I50020 nonfunctional as a replication origin'
p2995
asS'gene'
p2996
(lp2997
S'RNAII'
p2998
asS'replace'
p2999
(lp3000
S'c'
assg111
I1
sbag3
(g79
g5
NtRp3001
(dp3002
g82
Nsg83
Nsg84
(lp3003
sg86
S''
sg87
g88
sg35
g3
(g53
g5
NtRp3004
(dp3005
g56
g3
(g57
g5
NtRp3006
(dp3007
g60
I3621
sg61
I0
sbsg62
g3
(g57
g5
NtRp3008
(dp3009
g60
I3620
sg61
I0
sbsbsg95
S'misc_difference'
p3010
sg97
(dp3011
S'note'
p3012
(lp3013
S'C to T mutation to eliminate BciVI endonuclease site, renders BBa_I50020 nonfunctional as a replication origin'
p3014
asS'gene'
p3015
(lp3016
S'RNAII'
p3017
asS'replace'
p3018
(lp3019
S'c'
assg111
I1
sbasg1279
g3
(g1280
g5
NtRp3020
(dp3021
g1283
g1284
sg1286
S'TACTAGTAGCGGCCGCTGCAGGAGTCACTAAGGGTTAGTTAGTTAGATTAGCAGAAAGTCAAAAGCCTCCGACCGGAGGCTTTTGACTAAAACTTCCCTTGGGGTTATCATTGGGGCTCACTCAAAGGCGGTAATCAGATAAAAAAAATCCTTAGCTTTCGCTAAGGATGATTTCTGCTAGAGATGGAATAGACTGGATGGAGGCGGATAAAGTTGCAGGACCACTTCTGCGCTCGGCCCTTCCGGCTGGCTGGTTTATTGCTGATAAATCTGGAGCCGGTGAGCGTGGGTCTCGCGGTATCATTGCAGCACTGGGGCCAGATGGTAAGCCCTCCCGTATCGTAGTTATCTACACGACGGGGAGTCAGGCAACTATGGATGAACGAAATAGACAGATCGCTGAGATAGGTGCCTCACTGATTAAGCATTGGTAACTGTCAGACCAAGTTTACTCATATATACTTTAGATTGATTTAAAACTTCATTTTTAATTTAAAAGGATCTAGGTGAAGATCCTTTTTGATAATCTCATGACCAAAATCCCTTAACGTGAGTTTTCGTTCCACTGAGCGTCAGACCCCTTAATAAGATGATCTTCTTGAGATCGTTTTGGTCTGCGCGTAATCTCTTGCTCTGAAAACGAAAAAACCGCCTTGCAGGGCGGTTTTTCGAAGGTTCTCTGAGCTACCAACTCTTTGAACCGAGGTAACTGGCTTGGAGGAGCGCAGTCACCAAAACTTGTCCTTTCAGTTTAGCCTTAACCGGCGCATGACTTCAAGACTAACTCCTCTAAATCAATTACCAGTGGCTGCTGCCAGTGGTGCTTTTGCATGTCTTTCCGGGTTGGACTCAAGACGATAGTTACCGGATAAGGCGCAGCGGTCGGACTGAACGGGGGGTTCGTGCATACAGTCCAGCTTGGAGCGAACTGCCTACCCGGAACTGAGTGTCAGGCGTGGAATGAGACAAACGCGGCCATAACAGCGGAATGACACCGGTAAACCGAAAGGCAGGAACAGGAGAGCGCACGAGGGAGCCGCCAGGGGAAACGCCTGGTATCTTTATAGTCCTGTCGGGTTTCGCCACCACTGATTTGAGCGTCAGATTTCGTGATGCTTGTCAGGGGGGCGGAGCCTATGGAAAAACGGCTTTGCCGCGGCCCTCTCACTTCCCTGTTAAGTATCTTCCTGGCATCTTCCAGGAAATCTCCGCCCCGTTCGTAAGCCATTTCCGCTCGCCGCAGTCGAACGACCGAGCGTAGCGAGTCAGTGAGCGAGGAAGCGGAATATATCCTGTATCACATATTCTGCTGACGCACCGGTGCAGCCTTTTTTCTCCTGCCACATGAAGCACTTCACTGACACCCTCATCAGTGCCAACATAGTAAGCCAGTATACACTCCGCTAGCGCTGAGGTCTGCCTCGTGAAGAAGGTGTTGCTGACTCATACCAGGCCTGAATCGCCCCATCATCCAGCCAGAAAGTGAGGGAGCCACGGTTGATGAGAGCTTTGTTGTAGGTGGACCAGTTGGTGATTTTGAACTTTTGCTTTGCCACGGAACGGTCTGCGTTGTCGGGAAGATGCGTGATCTGATCCTTCAACTCAGCAAAAGTTCGATTTATTCAACAAAGCCACGTTGTGTCTCAAAATCTCTGATGTTACATTGCACAAGATAAAAATATATCATCATGAACAATAAAACTGTCTGCTTACATAAACAGTAATACAAGGGGTGTTTACTAGAGGTTGATCGGGCACGTAAGAGGTTCCAACTTTCACCATAATGAAATAAGATCACTACCGGGCGTATTTTTTGAGTTATCGAGATTTTCAGGAGCTAAGGAAGCTAAAATGGAGAAAAAAATCACGGGATATACCACCGTTGATATATCCCAATGGCATCGTAAAGAACATTTTGAGGCATTTCAGTCAGTTGCTCAATGTACCTATAACCAGACCGTTCAGCTGGATATTACGGCCTTTTTAAAGACCGTAAAGAAAAATAAGCACAAGTTTTATCCGGCCTTTATTCACATTCTTGCCCGCCTGATGAACGCTCACCCGGAGTTTCGTATGGCCATGAAAGACGGTGAGCTGGTGATCTGGGATAGTGTTCACCCTTGTTACACCGTTTTCCATGAGCAAACTGAAACGTTTTCGTCCCTCTGGAGTGAATACCACGACGATTTCCGGCAGTTTCTCCACATATATTCGCAAGATGTGGCGTGTTACGGTGAAAACCTGGCCTATTTCCCTAAAGGGTTTATTGAGAATATGTTTTTTGTCTCAGCCAATCCCTGGGTGAGTTTCACCAGTTTTGATTTAAACGTGGCCAATATGGACAACTTCTTCGCCCCCGTTTTCACGATGGGCAAATATTATACGCAAGGCGACAAGGTGCTGATGCCGCTGGCGATCCAGGTTCATCATGCCGTTTGTGATGGCTTCCATGTCGGCCGCATGCTTAATGAATTACAACAGTACTGTGATGAGTGGCAGGGCGGGGCGTAATAATACTAGCTCCGGCAAAAAAACGGGCAAGGTGTCACCACCCTGCCCTTTTTCTTTAAAACCGAAAAGATTACTTCGCGTTTGCCACCTGACGTCTAAGAAAAGGAATATTCAGCAATTTGCCCGTGCCGAAGAAAGGCCCACCCGTGAAGGTGAGCCAGTGAGTTGATTGCTACGTAATTAGTTAGTTAGCCCTTAGTGACTCGAATTCGCGGCCGCTTCTAGAGGGCTTACTAAAAGCCAGATAACAGTATGCGTATTTGCGCGCTGATTTTTGCGGTATAAGAATATATACTGATATGTATACCCGAAGTATGTCAAAAAGAGGTATGCTATGCAGTTTAAGGTTTACACCTATAAAAGAGAGAGCCGTTATCGTCTGTTTGTGGATGTACAGAGTGATATTATTGACACGCCCGGGCGACGGATGGTGATCCCCCTGGCCAGTGCACGTCTGCTGTCAGATAAAGTCTCCCGTGAACTTTACCCGGTGGTGCATATCGGGGATGAAAGCTGGCGCATGATGACCACCGATATGGCCAGTGTGCCGGTCTCCGTTATCGGGGAAGAAGTGGCTGATCTCAGCCACCGCGAAAATGACATCAAAAACGCCATTAACCTGATGTTCTGGGGAATATAATAACCCGTAGAAAAGATCAAAAGATCTTCTTGAGATCCTTTTTTTCTGCGCGTAATCTGCTACTTGCAAACAAAAAAACCACCGCTACCAGCGGTGGTTTGTTTGCCGGATCAAGAGCTACCAACTCTTTTTCCGAAGGTAACTGGCTTTAGCAGAGCGCAGATACCAAATACTGTCCTTCTAGTGTAGCCGTAGTTAGGCCACCACTTCAAGAACTCTGTAGCACCGCCTACATACCTCGCTCTGCTAATCCTGTTACCAGTAGCTACTGCCAGTAGCGATAAGTCGTGTCTTACCGGGTTGGATTCAAGACGATAGTTACCGGATAAGGCGCAGCGGTCGGGCTGAACGGGGGGTTCGTGCACACAGCCCAGCTTGGAGCGAACGACCTACACCGAACTGAGATACCTACAGCGTGAGCTATGAGAAAGCGCCACGCTTCCCGAAGGGAGAAAGGCGGACAGGTATCTGGTAAGCGGCAGGGTCGGAACAGGAGAGCGCACGAGGGAGCTTCCAGGGGGAAACGCCTGGTATCTTTATAGTCCTGTCGGGTTTCGCCACCTCTGACTTGAGCGTCGATTTTTGTGATGCTCGTCAGGGGGGCGGAGCCTATGGAAAAACGCCAGCAACGCGGCCTTTTTACGGTTCCTGGCCTTTTGCTGGCCTTTTGCTCACAT'
p3022
sbsg1288
g3
(g1289
g1290
(dtRp3023
(dp3024
g1293
I3828
sbsg87
S'EU496103.1'
p3025
sg1295
S'EU496103'
p3026
sbsS'p7NET'
p3027
g3
(g4
g5
NtRp3028
(dp3029
g8
(lp3030
sg10
S'Expression vector p7NET, complete sequence.'
p3031
sg12
(dp3032
g14
I1
sg15
S'Expression vector p7NET'
p3033
sg17
(lp3034
S'other sequences'
p3035
aS'artificial sequences'
p3036
aS'vectors'
p3037
asg22
(lp3038
S''
asg24
(lp3039
g3
(g26
g5
NtRp3040
(dp3041
g29
S''
sg30
S'Inducible EGFP expression under the control of the nitrate reductase gene promoter in transgenic Dunaliella salina'
p3042
sg32
S''
sg33
S'J. Appl. Phycol. 20 (2), 137-145 (2008)'
p3043
sg35
(lp3044
g3
(g53
g5
NtRp3045
(dp3046
g56
g3
(g57
g5
NtRp3047
(dp3048
g60
I2825
sg61
I0
sbsg62
g3
(g57
g5
NtRp3049
(dp3050
g60
I0
sg61
I0
sbsbasg37
S''
sg39
S'Li,J., Xue,L., Yan,H., Liu,H. and Liang,J.'
p3051
sg41
S''
sbag3
(g26
g5
NtRp3052
(dp3053
g29
S''
sg30
S'Direct Submission'
p3054
sg32
S''
sg33
S'Submitted (03-APR-2007) Cell Biology, Zhengzhou University, 40 Daxue Road, Zhengzhou, Henan 450052, China'
p3055
sg35
(lp3056
g3
(g53
g5
NtRp3057
(dp3058
g56
g3
(g57
g5
NtRp3059
(dp3060
g60
I2825
sg61
I0
sbsg62
g3
(g57
g5
NtRp3061
(dp3062
g60
I0
sg61
I0
sbsbasg37
S''
sg39
S'Li,J., Yan,H., Liu,L., Liang,J., Wang,P. and Xue,L.'
p3063
sg41
S''
sbasg66
(lp3064
S'EF535104'
p3065
asg69
S'SYN'
p3066
sg71
S'04-MAY-2010'
p3067
sg73
S'Expression vector p7NET'
p3068
sg75
S'146217630'
p3069
ssg77
(lp3070
g3
(g79
g5
NtRp3071
(dp3072
g82
Nsg83
Nsg84
(lp3073
sg86
S''
sg87
g88
sg35
g3
(g53
g5
NtRp3074
(dp3075
g56
g3
(g57
g5
NtRp3076
(dp3077
g60
I2825
sg61
I0
sbsg62
g3
(g57
g5
NtRp3078
(dp3079
g60
I0
sg61
I0
sbsbsg95
S'source'
p3080
sg97
(dp3081
S'db_xref'
p3082
(lp3083
S'taxon:439967'
p3084
asS'mol_type'
p3085
(lp3086
S'other DNA'
p3087
asS'organism'
p3088
(lp3089
S'Expression vector p7NET'
p3090
assg111
I1
sbag3
(g79
g5
NtRp3091
(dp3092
g82
Nsg83
Nsg84
(lp3093
sg86
S''
sg87
g88
sg35
g3
(g53
g5
NtRp3094
(dp3095
g56
g3
(g57
g5
NtRp3096
(dp3097
g60
I6
sg61
I0
sbsg62
g3
(g57
g5
NtRp3098
(dp3099
g60
I0
sg61
I0
sbsbsg95
S'misc_feature'
p3100
sg97
(dp3101
S'note'
p3102
(lp3103
S'HindIII restriction site'
p3104
assg111
I1
sbag3
(g79
g5
NtRp3105
(dp3106
g82
Nsg83
Nsg84
(lp3107
sg86
S''
sg87
g88
sg35
g3
(g53
g5
NtRp3108
(dp3109
g56
g3
(g57
g5
NtRp3110
(dp3111
g60
I1182
sg61
I0
sbsg62
g3
(g57
g5
NtRp3112
(dp3113
g60
I6
sg61
I0
sbsbsg95
S'misc_feature'
p3114
sg97
(dp3115
S'note'
p3116
(lp3117
S'nitrate reductase gene promoter from Dunaliella salina from GenBank Accession Number DQ217416'
p3118
assg111
I1
sbag3
(g79
g5
NtRp3119
(dp3120
g82
Nsg83
Nsg84
(lp3121
sg86
S''
sg87
g88
sg35
g3
(g53
g5
NtRp3122
(dp3123
g56
g3
(g57
g5
NtRp3124
(dp3125
g60
I1902
sg61
I0
sbsg62
g3
(g57
g5
NtRp3126
(dp3127
g60
I1182
sg61
I0
sbsbsg95
S'CDS'
p3128
sg97
(dp3129
S'product'
p3130
(lp3131
S'enhanced green fluorescent protein'
p3132
asS'codon_start'
p3133
(lp3134
S'1'
asS'transl_table'
p3135
(lp3136
S'11'
p3137
asS'db_xref'
p3138
(lp3139
S'GI:146217631'
p3140
asS'translation'
p3141
(lp3142
S'MVSKGEELFTGVVPILVELDGDVNGHKFSVSGEGEGDATYGKLTLKFICTTGKLPVPWPTLVTTLTYGVQCFSRYPDHMKQHDFFKSAMPEGYVQERTIFFKDDGNYKTRAEVKFEGDTLVNRIELKGIDFKEDGNILGHKLEYNYNSHNVYIMADKQKNGIKVNFKIRHNIEDGSVQLADHYQQNTPIGDGPVLLPDNHYLSTQSALSKDPNEKRDHMVLLEFVTAAGITLGMDELYK'
p3143
asS'protein_id'
p3144
(lp3145
S'ABQ10903.1'
p3146
assg111
I1
sbag3
(g79
g5
NtRp3147
(dp3148
g82
Nsg83
Nsg84
(lp3149
sg86
S''
sg87
g88
sg35
g3
(g53
g5
NtRp3150
(dp3151
g56
g3
(g57
g5
NtRp3152
(dp3153
g60
I1937
sg61
I0
sbsg62
g3
(g57
g5
NtRp3154
(dp3155
g60
I1902
sg61
I0
sbsbsg95
S'misc_feature'
p3156
sg97
(dp3157
S'note'
p3158
(lp3159
S'derived from cloning vector pGEM-7ZF(+)'
p3160
assg111
I1
sbag3
(g79
g5
NtRp3161
(dp3162
g82
Nsg83
Nsg84
(lp3163
sg86
S''
sg87
g88
sg35
g3
(g53
g5
NtRp3164
(dp3165
g56
g3
(g57
g5
NtRp3166
(dp3167
g60
I2813
sg61
I0
sbsg62
g3
(g57
g5
NtRp3168
(dp3169
g60
I1937
sg61
I0
sbsbsg95
S'misc_feature'
p3170
sg97
(dp3171
S'note'
p3172
(lp3173
S"3'-flanking region of nitrate reductase gene from Dunaliella salina from GenBank Accession Number AY567972"
p3174
assg111
I1
sbag3
(g79
g5
NtRp3175
(dp3176
g82
Nsg83
Nsg84
(lp3177
sg86
S''
sg87
g88
sg35
g3
(g53
g5
NtRp3178
(dp3179
g56
g3
(g57
g5
NtRp3180
(dp3181
g60
I2825
sg61
I0
sbsg62
g3
(g57
g5
NtRp3182
(dp3183
g60
I2813
sg61
I0
sbsbsg95
S'misc_feature'
p3184
sg97
(dp3185
S'note'
p3186
(lp3187
S'HindIII and AatII restriction sites'
p3188
assg111
I1
sbasg1279
g3
(g1280
g5
NtRp3189
(dp3190
g1283
g1284
sg1286
S'AAGCTTAGCTTGCCATTATTGTGTGTATCCATAGTGATGATTGATGAGCCTAAATCTCCTTTGCTGATTGCTGCGCTGCATAGACTGACTGCTGAATGGTGTCAATTGATCCTCGATGATTCAAGGAGCCATGCTGATAAGTAGATTAATTAATACATATGCACAGCTGTTCGCCAATGTCGTAAGATTTATTTTTGACGCAGGACAGGGGGCATTTGCGTGCTACTCCACCCAAACGAACATCTCGACCACCAGGAACTTTTGTGAAAGCGAGCACGTCACACATTGAAGGAGCTCTTGTTGGACTGCAGGTTCATCCAATTGTCAAGTCAATTTGTCTTCTACTAGGCTGCTCTCTCTCTTCAGTGTGCCATGTTGAAGTGTCTTCATGCCTACAACCTCGCTAATGGTAAGCACTGCTGCGGTGGTCCGAGTTGAAGGGCGCCCCATCATCGGGCATCAATCTTTGCATGCGCGCAGAACTGTTCATGCTGAAGTAGATCAGGTACGCCACCAGCTCATGAGCTGGATGGATGGACCTGGCTGTAGCTCCATATTTTGGTGGCTCACCACCAGCAACCATAAACTAAAACAGAGCGCTGCATGTGCCATAATGGCCCCGTAGACATGAGGCATGGAATCTGCGTGCCACTGTGTGCCTTGCAACGCCAGCGGGCTTGTTCGCAATCTGTTGCATTGCCATCTACAATACGCAAGGAGGGAGGGCATGGAATAAGGACACTCAGAATTCTTTGTTGCGCTGCCAGTGCCCACATGCACATGCAGGACACCTGCCAGCAGCTGGAGCACTGCAGGAGGCAGGGGTGGAGCAGGGAGCGAGGGATCGTAGCTGGCTCCTGCATGCGAGGAGCACTTTGCGCATGCTTGCTTGCGATGGTGCTGGGAAAGTCCTCGGGAAAGGGTGGTGGCCCATTGGCCTATCGCATTGACACAGTGTCCTTATCGTCGCACGTGTTGACTGGATTACAGCACCCCCAAGAGCCCACCCCCCTTTCCGGGCAGCCCACCCCCAAGAGCGCCCCCTGCTCAAAACCACTTAAACTCTGCTTTGCACACCGTGCCTCACGCTGCCACGCTTGGGGGAGGCACGCACGCGCGGCAGAGTGTGAGCAGCTCGTCTGCTCTTGCTGCTGTTAAACACAGCCTGTCCGCAGCAGCAGAATGGTGAGCAAGGGCGAGGAGCTGTTCACCGGGGTGGTGCCCATCCTGGTCGAGCTGGACGGCGACGTAAACGGCCACAAGTTCAGCGTGTCCGGCGAGGGCGAGGGCGATGCCACCTACGGCAAGCTGACCCTGAAGTTCATCTGCACCACCGGCAAGCTGCCCGTGCCCTGGCCCACCCTCGTGACCACCCTGACCTACGGCGTGCAGTGCTTCAGCCGCTACCCCGACCACATGAAGCAGCACGACTTCTTCAAGTCCGCCATGCCCGAAGGCTACGTCCAGGAGCGCACCATCTTCTTCAAGGACGACGGCAACTACAAGACCCGCGCCGAGGTGAAGTTCGAGGGCGACACCCTGGTGAACCGCATCGAGCTGAAGGGCATCGACTTCAAGGAGGACGGCAACATCCTGGGGCACAAGCTGGAGTACAACTACAACAGCCACAACGTCTATATCATGGCCGACAAGCAGAAGAACGGCATCAAGGTGAACTTCAAGATCCGCCACAACATCGAGGACGGCAGCGTGCAGCTCGCCGACCACTACCAGCAGAACACCCCCATCGGCGACGGCCCCGTGCTGCTGCCCGACAACCACTACCTGAGCACCCAGTCCGCCCTGAGCAAAGACCCCAACGAGAAGCGCGATCACATGGTCCTGCTGGAGTTCGTGACCGCCGCCGGGATCACTCTCGGCATGGACGAGCTGTACAAGTAAATCGATAAGCTTGGGCCCCATGGCTTAAGCTCGAGTTCTGAGCGGGGTCAGCAGGAGCGACGGCACATGCACGCAGAGCGCGTGCTCAGGCGCATGTATATAATATGGCTCCCCTGTCAGGGTACCCCATTGTGGTCTGCAGTGACTGCTGTATGAATCTTATAGTGGCACTAAGAGCGGCACAAATGGGCCGACTGAACTGGAGTGAGAGGAGCGAGAGGAGTCATACGCCAATGTCATTGTCATACTAAGAGATTCCCCATAGCTATGCAGATTAGATTTTTTAGGGAGTGCTGTAGGTGCTCTACTCAGTGAGTGTTGTTGGCTGACTTTGAAAAGTCTCCAGCAATGCCGGCGTCAGCCATTGCGGGGCTGCGCGTGGTTGGTGTGAGGCCATTTTTTTTTTGGCTGGCAGTAAGGAATAAGGGAGAGAAAAATTCTTAGTGTGCCAGGCTCAGGCCTTAATGAGTGCTGCGGCCTCGGTGTTCATGTTCAGTGTGTGAAACCCTTGGCACTTGTGCCTGGCATTCATTCGCCATTATTTGATGCATCCTAAGGAGGATTGTCTTTTGTTGTGTACAGTAGGCAAAAGCTCAGGTTGCCTCCTAGACCAGGCAGGACGGCTAACAGTGGGGTGCAATCTGTTGCATGCACTGTCTGAATTCGCATGTGCTGCTTTAGTCAAGTTCTGGGCTATACTTGGCTGTTTTTGGCTTTGTTGTAGCAGTAGACATTCCCGCTTACTGTTGGCTGCATGCATACTTGCTGTGTGGAGCCCCATGTTGCGGCAACGCAATATGTGAATAATCTCTTTCATTTCAGTATCAGGAGCTTGGCTTCCAAACACTCATCAACTTGCTGGTTCTTTCCACTCATGTTTTTGCCTGGGAGGGATTGCAAAGGCTGATCGAAAGCTTGACGTC'
p3191
sbsg1288
g3
(g1289
g1290
(dtRp3192
(dp3193
g1293
I2825
sbsg87
S'EF535104.1'
p3194
sg1295
S'EF535104'
p3195
sbsS'pHN1_lacUV5'
p3196
g3
(g4
g5
NtRp3197
(dp3198
g8
(lp3199
sg10
S'Cloning vector pHN1_lacUV5, complete sequence.'
p3200
sg12
(dp3201
g14
I1
sg15
S'Cloning vector pHN1_lacUV5'
p3202
sg17
(lp3203
S'other sequences'
p3204
aS'artificial sequences'
p3205
aS'vectors'
p3206
asg22
(lp3207
S''
asg24
(lp3208
g3
(g26
g5
NtRp3209
(dp3210
g29
S''
sg30
S'Engineering cyanobacteria to synthesize and export hydrophilic products'
p3211
sg32
S''
sg33
S'Appl. Environ. Microbiol. 76 (11), 3462-3466 (2010)'
p3212
sg35
(lp3213
g3
(g53
g5
NtRp3214
(dp3215
g56
g3
(g57
g5
NtRp3216
(dp3217
g60
I4885
sg61
I0
sbsg62
g3
(g57
g5
NtRp3218
(dp3219
g60
I0
sg61
I0
sbsbasg37
S'20363793'
p3220
sg39
S'Niederholtmeyer,H., Wolfstadter,B.T., Savage,D.F., Silver,P.A. and Way,J.C.'
p3221
sg41
S''
sbag3
(g26
g5
NtRp3222
(dp3223
g29
S''
sg30
S'Direct Submission'
p3224
sg32
S''
sg33
S'Submitted (24-MAR-2010) Systems Biology, Harvard Medical School, 200 Longwood Ave., Boston, MA 02115, USA'
p3225
sg35
(lp3226
g3
(g53
g5
NtRp3227
(dp3228
g56
g3
(g57
g5
NtRp3229
(dp3230
g60
I4885
sg61
I0
sbsg62
g3
(g57
g5
NtRp3231
(dp3232
g60
I0
sg61
I0
sbsbasg37
S''
sg39
S'Niederholtmeyer,H., Wolfstadter,B.T., Savage,D.F., Silver,P.A. and Way,J.C.'
p3233
sg41
S''
sbasg66
(lp3234
S'HM026758'
p3235
asg69
S'SYN'
p3236
sg71
S'25-MAY-2010'
p3237
sg73
S'Cloning vector pHN1_lacUV5'
p3238
sg75
S'296044513'
p3239
ssg77
(lp3240
g3
(g79
g5
NtRp3241
(dp3242
g82
Nsg83
Nsg84
(lp3243
sg86
S''
sg87
g88
sg35
g3
(g53
g5
NtRp3244
(dp3245
g56
g3
(g57
g5
NtRp3246
(dp3247
g60
I4885
sg61
I0
sbsg62
g3
(g57
g5
NtRp3248
(dp3249
g60
I0
sg61
I0
sbsbsg95
S'source'
p3250
sg97
(dp3251
S'note'
p3252
(lp3253
S'integration vector specific to neutral site 3 for Synechococcus elongatus PCC7942'
p3254
asS'db_xref'
p3255
(lp3256
S'taxon:763036'
p3257
asS'mol_type'
p3258
(lp3259
S'other DNA'
p3260
asS'organism'
p3261
(lp3262
S'Cloning vector pHN1_lacUV5'
p3263
assg111
I1
sbag3
(g79
g5
NtRp3264
(dp3265
g82
Nsg83
Nsg84
(lp3266
sg86
S''
sg87
g88
sg35
g3
(g53
g5
NtRp3267
(dp3268
g56
g3
(g57
g5
NtRp3269
(dp3270
g60
I625
sg61
I0
sbsg62
g3
(g57
g5
NtRp3271
(dp3272
g60
I5
sg61
I0
sbsbsg95
S'rep_origin'
p3273
sg97
(dp3274
S'note'
p3275
(lp3276
S'pUC57 origin'
p3277
assg111
I1
sbag3
(g79
g5
NtRp3278
(dp3279
g82
Nsg83
Nsg84
(lp3280
sg86
S''
sg87
g88
sg35
g3
(g53
g5
NtRp3281
(dp3282
g56
g3
(g57
g5
NtRp3283
(dp3284
g60
I1882
sg61
I0
sbsg62
g3
(g57
g5
NtRp3285
(dp3286
g60
I1790
sg61
I0
sbsbsg95
S'promoter'
p3287
sg97
(dp3288
S'note'
p3289
(lp3290
S'trp/lac hydrid promoter'
p3291
assg111
I1
sbag3
(g79
g5
NtRp3292
(dp3293
g82
Nsg83
Nsg84
(lp3294
sg86
S''
sg87
g88
sg35
g3
(g53
g5
NtRp3295
(dp3296
g56
g3
(g57
g5
NtRp3297
(dp3298
g60
I1902
sg61
I0
sbsg62
g3
(g57
g5
NtRp3299
(dp3300
g60
I1887
sg61
I0
sbsbsg95
S'RBS'
p3301
sg97
(dp3302
sg111
I1
sbag3
(g79
g5
NtRp3303
(dp3304
g82
Nsg83
Nsg84
(lp3305
sg86
S''
sg87
g88
sg35
g3
(g53
g5
NtRp3306
(dp3307
g56
g3
(g57
g5
NtRp3308
(dp3309
g60
I1926
sg61
I0
sbsg62
g3
(g57
g5
NtRp3310
(dp3311
g60
I1902
sg61
I0
sbsbsg95
S'misc_feature'
p3312
sg97
(dp3313
S'note'
p3314
(lp3315
S'multiple cloning site'
p3316
assg111
I1
sbasg1279
g3
(g1280
g5
NtRp3317
(dp3318
g1283
g1284
sg1286
S'CTAGTCGCGTTGCTGGCGTTTTTCCATAGGCTCCGCCCCCCTGACGAGCATCACAAAAATCGACGCTCAAGTCAGAGGTGGCGAAACCCGACAGGACTATAAAGATACCAGGCGTTTCCCCCTGGAAGCTCCCTCGTGCGCTCTCCTGTTCCGACCCTGCCGCTTACCGGATACCTGTCCGCCTTTCTCCCTTCGGGAAGCGTGGCGCTTTCTCATAGCTCACGCTGTAGGTATCTCAGTTCGGTGTAGGTCGTTCGCTCCAAGCTGGGCTGTGTGCACGAACCCCCCGTTCAGCCCGACCGCTGCGCCTTATCCGGTAACTATCGTCTTGAGTCCAACCCGGTAAGACACGACTTATCGCCACTGGCAGCAGCCACTGGTAACAGGATTAGCAGAGCGAGGTATGTAGGCGGTGCTACAGAGTTCTTGAAGTGGTGGCCTAACTACGGCTACACTAGAAGAACAGTATTTGGTATCTGCGCTCTGCTGAAGCCAGTTACCTTCGGAAAAAGAGTTGGTAGCTCTTGATCCGGCAAACAAACCACCGCTGGTAGCGGTGGTTTTTTTGTTTGCAAGCAGCAGATTACGCGCAGAAAAAAAGGATCTCAAGAAGATCCTTTGATCTTTTCTACGGGGTCTGACGCTCAGTCTAGTTCAGCCAGCTCGTCGTGATGTCGAAACCCAAGCCACCCTCAGAGGTGAAGGCCGCTTCGAGCACATCGGGAAGCGTGTCGACGACGGTGCTCGGTGCCTCGGGTAAGAGCCAGATAGATGCGGTGACGTTCACCGTCGCGATCGTGGCGGGAACCACGGTCACTGCGTCCGTTACAACTCGCACGTCGTCGGCCAGCACGACTGACTCGACGGCTTCGATTAGCCCGGGAGAGGCAAGGCCATCAGGCTCGGTAGACAGAATGCTGATTAACACCTCGCCGGGAGCAGGGCTGCTCACAGCCGCGTCCTTCACCCGTGGGTCAGCCGTCAGCGCTTGATAGCGGTACCAGGCCGCACCGCCTGCGGTCGAGCTGCCCTTGATCCGCTCGATGGTGCGATCGCGAAGCTCGCCATCCGGCTCATTCGGCTGCCGCACCACGCCGTAGAACGCGGCAAGGTTGTCGAGGTCGGGGCCGTTTGAGTAGCGAAGCAGTGTCGCAAGAAGTGCGTCGTTGATCCGCTGACGCAGGATCAGCTCGCGGGCTGCGCAGACCTCCAGCAGCTTGATGACCGGGTCGGATTCGAGGATGGCGGTGTAGCTGGCGTCACGCGATCGCAGGTCGTCGATCAAGTCCTGCAGGATCAGTTCAAAGTCCAGCGCTTCGATGATGGTGGGCGCGGGAATCGTAGCAAAGTCAAGAACGGTCATGAGACGACTAAGCCCTCCAGCGTGATACGCCTGCCCTCGGGGATGTAGTAGCCGATCAGGTTCAGCTCGACTTGACCAGCTGCGCTGGCTGAGACGATGCGAACCTTCTCCAGCTTCAGCCGTGGCTCCCAGCGATCGAGCGCTTCAGCTGTGGCCGCCACCAGGTCAACGATGAGGGACTGGTTGATCGGTCTAGTCATCAAATAAAACGAAAGGCTCAGTCGAAAGACTGGGCCTTTCGTTTTATCTGTTGTTTGTCGGTGAACGCTCTCCTGAGTAGGACAAATCCGCCGGGAGCGGATTTGAACGTTGCGAAGCAACGGCCCGGAGGGTGGCGGGCAGGACGCCCGCCATAAACTGCCAGGCATCAAATTAAGCAGAAGGCCATCCTGACGGATGGCCTTTTTGCGTTTCTACTCTAGTTTCGAATTGTGAGCGCTCACAATTTCGAAACCCCAGGCTTTACACTTTATGCTTCCGGCTCGTATAATGTGTGGAATTGTGAGCGGATAACAATTTCACACAAGGAGGAAAAACATATGTCTAGAAAGCTTGCGGCCGCGTAGGATCCGATCGGCACGTAAGAGGTTCCAACTTTCACCATAATGAAATAAGATCACTACCGGGCGTATTTTTTGAGTTATCGAGATTTTCAGGAGCTAAGGAAGCTAAAATGGAGAAAAAAATCACTGGATATACCACCGTTGATATATCCCAATGGCATCGTAAAGAACATTTTGAGGCATTTCAGTCAGTTGCTCAATGTACCTATAACCAGACCGTTCAGCTGGATATTACGGCCTTTTTAAAGACCGTAAAGAAAAATAAGCACAAGTTTTATCCGGCCTTTATTCACATTCTTGCCCGCCTGATGAATGCTCATCCGGAGTTCCGTATGGCAATGAAAGACGGTGAGCTGGTGATATGGGATAGTGTTCACCCTTGTTACACCGTTTTCCATGAGCAAACTGAAACGTTTTCATCGCTCTGGAGTGAATACCACGACGATTTCCGGCAGTTTCTACACATATATTCGCAAGATGTGGCGTGTTACGGTGAAAACCTGGCCTATTTCCCTAAAGGGTTTATTGAGAATATGTTTTTCGTCTCAGCCAATCCCTGGGTGAGTTTCACCAGTTTTGATTTAAACGTGGCCAATATGGACAACTTCTTCGCCCCCGTTTTCACTATGGGCAAATATTATACGCAAGGCGACAAGGTGCTGATGCCGCTGGCGATTCAGGTTCATCATGCCGTCTGTGATGGCTTCCATGTCGGCAGAATGCTTAATGAATTACAACAGTACTGCGATGAGTGGCAGGGCGGGGCGTAATTTTTTTAAGGCAGTTATTGGTGCCCTTGAATTCCTACTAGTCGAAGCGGCATGCATTTACGTTGACACCATCGAATGGTGCAAAACCTTTCGCGGTATGGCATGATAGCGCCCGGAAGAGAGTCAATTCAGGGTGGTGAATGTGAAACCAGTAACGTTATACGATGTCGCAGAGTATGCCGGTGTCTCTTATCAGACCGTTTCCCGCGTGGTGAACCAGGCCAGCCACGTTTCTGCGAAAACGCGGGAAAAAGTGGAAGCGGCGATGGCGGAGCTGAATTACATTCCCAACCGCGTGGCACAACAACTGGCGGGCAAACAGTCGTTGCTGATTGGCGTTGCCACCTCCAGTCTGGCCCTGCACGCGCCGTCGCAAATTGTCGCGGCGATTAAATCTCGCGCCGATCAACTGGGTGCCAGCGTGGTGGTGTCGATGGTAGAACGAAGCGGCGTCGAAGCCTGTAAAGCGGCGGTGCACAATCTTCTCGCGCAACGCGTCAGTGGGCTGATCATTAACTATCCGCTGGATGACCAGGATGCCATTGCTGTGGAAGCTGCCTGCACTAATGTTCCGGCGTTATTTCTTGATGTCTCTGACCAGACACCCATCAACAGTATTATTTTCTCCCATGAAGACGGTACGCGACTGGGCGTGGAGCATCTGGTCGCATTGGGTCACCAGCAAATCGCGCTGTTAGCGGGCCCATTAAGTTCTGTCTCGGCGCGTCTGCGTCTGGCTGGCTGGCATAAATATCTCACTCGCAATCAAATTCAGCCGATAGCGGAACGGGAAGGCGACTGGAGTGCCATGTCCGGTTTTCAACAAACCATGCAAATGCTGAATGAGGGCATCGTTCCCACTGCGATGCTGGTTGCCAACGATCAGATGGCGCTGGGCGCAATGCGCGCCATTACCGAGTCCGGGCTGCGCGTTGGTGCGGATATCTCGGTAGTGGGATACGACGATACCGAAGACAGCTCATGTTATATCCCGCCGTTAACCACCATCAAACAGGATTTTCGCCTGCTGGGGCAAACCAGCGTGGACCGCTTGCTGCAACTCTCTCAGGGCCAGGCGGTGAAGGGCAATCAGCTGTTGCCCGTCTCACTGGTGAAAAGAAAAACCACCCTGGCGCCCAATACGCAAACCGCCTCTCCCCGCGCGTTGGCCGATTCATTAATGCAGCTGGCACGACAGGTTTCCCGACTGGAAAGCGGGCAGTGATCCCACAGCCGCCAGTTCCGCTGGCGGCATTTTAACTTTCTTTAATGAATCTAGTGACAAGCCGGGGCAGACGTGAGCCGTAGTCCCGTCGCCAGACGCGGGTGCCCACGGGCGTCGTCAGGATGTCCGTAATTGACTGCCGGAGGTGGTCAATGCCCTTCAGCTCCTTGCCACTGTCACGGCTCATGCCTCGGGTCATTAGTCGCCCGCTCCGGTATCTTCACTGGCTTCGATGATTGCCGCCCCGCAGCTGCAGAGGTCACCGATCCGAGCAGTCGGCCTCTGGTTGGTAAAGACCGTGCGACTGCCGGTGATGATCGTGTTCAAGCCATGCAGGGGGCAGGCGTGAAGGTCATCCTTTCGGGCCACGGGGCGGCTGTTGACGAAGGTGTCGTCGCTCCCGGTGATGATGATCCCGCCGTGATCGGTCACGTCGTTTAGTCGAGCGATGCCTGGCGTCGTAGTCACGGGTTTAGGTCAATACGACTTGCGGTCACTGTAACGTTGCCCTCGGCGGTCACGTTAACGTCGCCTTGGGCTTCGACTTGCGCCTCCTGCACAAGGATCACAATCCGTCCTTGGGCTGCGGTGAGGTCGATCTTGTACTCATGCGCTTCGCGGTCGTACTGGATGATTGAGTCATCCTCGAACTGCGTCTTTTGGATCGTTTCTTTGTCCTCGATCTGGGGGTAGTCAGTCGAGAACGCGCCGGGCATCGCGAAGCCCTGACTGATCTCGCCGGAGGGGGCCATCACGACGACGGCCTCACCGACCTCGGGCGCCCACCAGAACCGATCCTTGCCCGCTCGCTGCGTGAGCCACGGAATCCAGTCAGTGAGGAGCAGCGCCTCGCCGCTCTCCTCGTCTTCCTCGATCGCGACACGGATCAGCCCCTTGGGATAGTCAGCCTCGGCTACCCTGCCTACGCGGAGCAAGTTGCCGTGACGCCGACTGTCTCGAGTAT'
p3319
sbsg1288
g3
(g1289
g1290
(dtRp3320
(dp3321
g1293
I4885
sbsg87
S'HM026758.1'
p3322
sg1295
S'HM026758'
p3323
sbsS'pBR322'
p3324
g3
(g4
g5
NtRp3325
(dp3326
g8
(lp3327
sg10
S'Cloning vector pBR322, complete sequence.'
p3328
sg12
(dp3329
g29
S'On or before Apr 4, 2002 this sequence version replaced gi:208963,\ngi:58257.\nThe circular sequence is numbered such that 0 is the middle of the\nunique EcoRI site and the count increases first through the tet\ngenes, the pMB1 material, and finally through the Tn3 region.\nPlasmid pBR322 contains ampicillin and tetracycline resistance\ngenes.  The ampicillin resistance gene (amp-r) is a penicillin\nbeta-lactamase. Promoters P1 and P3 are for the beta-lactamase\ngene. P3 is the natural promoter, and P1 is artificially created by\nthe ligation of two different DNA fragments to create pBR322. P2 is\nin the same region as P1, but it is on the opposite strand and\ninitiates transcription in the direction of the tetracycline\nresistance gene.\nMutational studies in the primosome assembly sites indicate four\ntypes of mutations:  Class I having no effect on the activities\nelicited by the DNA site and the bases involved are probably\nspacers; Class II requiring higher Mg-2+ concentrations than the\nwild-type to be fully activated as factor Y ATPase effectors; Class\nIII co-inactivating both the ATPase effector and DNA replication\ntemplate activity of the site, indicating that they probably\nrepresent essential contact points between factor Y and the DNA;\nClass IV having a replication template activity intermediate that\nof class III and class II mutant DNAs.\nSpecific sites within or near the origins of replication are\nrecognized by dnaA protein.  Without dnaA binding to the origin of\nreplication chromosomal replication is not possible (15). pBR322\nDNA contains two separate regions on opposite strands and close to\nthe origin of replication which, when in single-stranded form, can\nact as effectors for the ATPase activity of E.coli replication\nfactor Y (5).  Small fragments of DNA containing these sites when\ncloned in an f1 phage vector act as origins of DNA replication\nallowing the formation of complementary double-stranded DNA in\nrifampicin-resistant, dna(B,G,C)-dependent fashion in vitro (5).\nThe biological activity of echinomycin is thought to be related to\nthe formation of complexes by intercalating with cellular DNA (20).\nComplete source information:\nPlasmid pBR322 from E.coli (2),(1),(3),(6),(11),(8),(5),(7),(12),\n(13),(10),(9),(14),(18),(19),(15),(20),(16); pBR322 DNA in pXf3\n(4).\nThe following data and their annotation were supplied by Will\nGilbert under the auspices of the Curator Program.\n CROSSREFERENCE\n               #parent\n                 GenBank(50):pSC101C, GenBank(50):Trn3\n               #offspring\n                 VecBase(3):pBR325, VecBase(3):pBR327,\nVecBase(3):pBR328,\n                 VecBase(3):pAT153, VecBase(3):pUC7,\nVecBase(3):pJRD158,\n                 VecBase(3):PiVX, VecBase(3):PiAN7,\nVecBase(3):pSP64,\n                 VecBase(3):pSP65, VecBase(3):pGEM1,\nVecBase(3):pGEM2,\n                 VecBase(3):pGEM3, VecBase(3):pGEM4,\nVecBase(3):pKK223,\n                 VecBase(3):pLBU3, VecBase(3):pTrS3,\nVecBase(3):pRSVNeo,\n                 VecBase(3):pSV2Cat, VecBase(3):M13mp9,\nVecBase(3):pHC79,\n                 VecBase(3):pV34, VecBase(3):pKTH601,\nVecBase(3):pKTH604,\n                 VecBase(3):pKTH605, VecBase(3):pKTH606,\nVecBase(3):YEp24,\n                 VecBase(3):YIp5, VecBase(3):YRp17,\nVecBase(3):pSP18,\n            VecBase(3):pSP19,\n                 VecBase(3):pSP6T3, VecBase(3):pSP6T719,\nVecBase(3):pT712,\n                 VecBase(3):pT713, VecBase(3):pT7T318,\nVecBase(3):pT7T319,\n                 VecBase(3):pT7T3A18, VecBase(3):pT7T3A19,\nVecBase(3):pEX1,\n                 VecBase(3):pEX2, VecBase(3):pEX3,\nVecBase(3):pCKSP6,\n                 VecBase(3):pACYC177, VecBase(3):pKO1,\nVecBase(3):pKO2,\n            VecBase(3):pKM1,\n                 VecBase(3):pKM2, VecBase(3):pMBL1,\nVecBase(3):pMBL604,\n                 VecBase(3):pMC1511, VecBase(3):pMC1871,\nVecBase(3):pAA37X,\n                 VecBase(3):pUR278, VecBase(3):pUR288,\nVecBase(3):pUR289,\n                 VecBase(3):pUR290, VecBase(3):pUR291,\nVecBase(3):pUR292,\n                 VecBase(3):pUR222.'
p3330
sg14
I1
sg15
S'Cloning vector pBR322'
p3331
sg17
(lp3332
S'other sequences'
p3333
aS'artificial sequences'
p3334
aS'vectors'
p3335
asg22
(lp3336
S'ampicillin resistance'
p3337
aS'beta-lactamase'
p3338
aS'cloning vector'
p3339
aS'drug resistance protein'
p3340
aS'origin of replication'
p3341
aS'plasmid'
p3342
aS'tetracycline resistance'
p3343
asg24
(lp3344
g3
(g26
g5
NtRp3345
(dp3346
g29
S''
sg30
S'Nucleotide sequence of the ampicillin resistance gene of Escherichia coli plasmid pBR322'
p3347
sg32
S''
sg33
S'Proc. Natl. Acad. Sci. U.S.A. 75 (8), 3737-3741 (1978)'
p3348
sg35
(lp3349
g3
(g53
g5
NtRp3350
(dp3351
g56
g3
(g57
g5
NtRp3352
(dp3353
g60
I3
sg61
I0
sbsg62
g3
(g57
g5
NtRp3354
(dp3355
g60
I0
sg61
I0
sbsbag3
(g53
g5
NtRp3356
(dp3357
g56
g3
(g57
g5
NtRp3358
(dp3359
g60
I4361
sg61
I0
sbsg62
g3
(g57
g5
NtRp3360
(dp3361
g60
I3258
sg61
I0
sbsbasg37
S'358200'
p3362
sg39
S'Sutcliffe,J.G.'
p3363
sg41
S''
sbag3
(g26
g5
NtRp3364
(dp3365
g29
S''
sg30
S'Complete nucleotide sequence of the Escherichia coli plasmid pBR322'
p3366
sg32
S''
sg33
S'Cold Spring Harb. Symp. Quant. Biol. 43 Pt 1, 77-90 (1979)'
p3367
sg35
(lp3368
g3
(g53
g5
NtRp3369
(dp3370
g56
g3
(g57
g5
NtRp3371
(dp3372
g60
I4361
sg61
I0
sbsg62
g3
(g57
g5
NtRp3373
(dp3374
g60
I0
sg61
I0
sbsbasg37
S'383387'
p3375
sg39
S'Sutcliffe,J.G.'
p3376
sg41
S''
sbag3
(g26
g5
NtRp3377
(dp3378
g29
S''
sg30
S'Transposition of the Escherichia coli insertion element gamma generates a five-base-pair repeat'
p3379
sg32
S''
sg33
S'Proc. Natl. Acad. Sci. U.S.A. 76 (10), 4882-4886 (1979)'
p3380
sg35
(lp3381
g3
(g53
g5
NtRp3382
(dp3383
g56
g3
(g57
g5
NtRp3384
(dp3385
g60
I2300
sg61
I0
sbsg62
g3
(g57
g5
NtRp3386
(dp3387
g60
I1499
sg61
I0
sbsbasg37
S'388421'
p3388
sg39
S'Reed,R.R., Young,R.A., Steitz,J.A., Grindley,N.D. and Guyer,M.S.'
p3389
sg41
S''
sbag3
(g26
g5
NtRp3390
(dp3391
g29
S''
sg30
S'Construction and characterization of new cloning vehicles. V. Mobilization and coding properties of pBR322 and several deletion derivatives including pBR327 and pBR328'
p3392
sg32
S''
sg33
S'Gene 13 (1), 25-35 (1981)'
p3393
sg35
(lp3394
g3
(g53
g5
NtRp3395
(dp3396
g56
g3
(g57
g5
NtRp3397
(dp3398
g60
I2265
sg61
I0
sbsg62
g3
(g57
g5
NtRp3399
(dp3400
g60
I2206
sg61
I0
sbsbasg37
S'6263753'
p3401
sg39
S'Covarrubias,L., Cervantes,L., Covarrubias,A., Soberon,X., Vichido,I., Blanco,A., Kupersztoch-Portnoy,Y.M. and Bolivar,F.'
p3402
sg41
S''
sbag3
(g26
g5
NtRp3403
(dp3404
g29
S''
sg30
S'Maximal limits of the Escherichia coli replication factor Y effector site sequences in pBR322 DNA'
p3405
sg32
S''
sg33
S'J. Biol. Chem. 257 (10), 5656-5662 (1982)'
p3406
sg35
(lp3407
g3
(g53
g5
NtRp3408
(dp3409
g56
g3
(g57
g5
NtRp3410
(dp3411
g60
I2500
sg61
I0
sbsg62
g3
(g57
g5
NtRp3412
(dp3413
g60
I1999
sg61
I0
sbsbasg37
S'6279609'
p3414
sg39
S'Marians,K.J., Soeller,W. and Zipursky,S.L.'
p3415
sg41
S''
sbag3
(g26
g5
NtRp3416
(dp3417
g29
S''
sg30
S'Precise location of two promoters for the beta-lactamase gene of pBR322. S1 mapping of ribonucleic acid isolated from Escherichia coli or synthesized in vitro'
p3418
sg32
S''
sg33
S'J. Biol. Chem. 257 (15), 9205-9210 (1982)'
p3419
sg35
(lp3420
g3
(g53
g5
NtRp3421
(dp3422
g56
g3
(g57
g5
NtRp3423
(dp3424
g60
I80
sg61
I0
sbsg62
g3
(g57
g5
NtRp3425
(dp3426
g60
I0
sg61
I0
sbsbag3
(g53
g5
NtRp3427
(dp3428
g56
g3
(g57
g5
NtRp3429
(dp3430
g60
I4229
sg61
I0
sbsg62
g3
(g57
g5
NtRp3431
(dp3432
g60
I4150
sg61
I0
sbsbag3
(g53
g5
NtRp3433
(dp3434
g56
g3
(g57
g5
NtRp3435
(dp3436
g60
I4361
sg61
I0
sbsg62
g3
(g57
g5
NtRp3437
(dp3438
g60
I4348
sg61
I0
sbsbasg37
S'6178738'
p3439
sg39
S'Brosius,J., Cate,R.L. and Perlmutter,A.P.'
p3440
sg41
S''
sbag3
(g26
g5
NtRp3441
(dp3442
g29
S''
sg30
S'Map of distamycin, netropsin, and actinomycin binding sites on heterogeneous DNA: DNA cleavage-inhibition patterns with methidiumpropyl-EDTA.Fe(II)'
p3443
sg32
S''
sg33
S'Proc. Natl. Acad. Sci. U.S.A. 79 (18), 5470-5474 (1982)'
p3444
sg35
(lp3445
g3
(g53
g5
NtRp3446
(dp3447
g56
g3
(g57
g5
NtRp3448
(dp3449
g60
I4343
sg61
I0
sbsg62
g3
(g57
g5
NtRp3450
(dp3451
g60
I4240
sg61
I0
sbsbasg37
S'6291045'
p3452
sg39
S'Van Dyke,M.W., Hertzberg,R.P. and Dervan,P.B.'
p3453
sg41
S''
sbag3
(g26
g5
NtRp3454
(dp3455
g29
S''
sg30
S'Local mutagenesis within deletion loops of DNA heteroduplexes'
p3456
sg32
S''
sg33
S'Proc. Natl. Acad. Sci. U.S.A. 79 (23), 7214-7217 (1982)'
p3457
sg35
(lp3458
g3
(g53
g5
NtRp3459
(dp3460
g56
g3
(g57
g5
NtRp3461
(dp3462
g60
I709
sg61
I0
sbsg62
g3
(g57
g5
NtRp3463
(dp3464
g60
I583
sg61
I0
sbsbasg37
S'6760191'
p3465
sg39
S'Peden,K.W. and Nathans,D.'
p3466
sg41
S''
sbag3
(g26
g5
NtRp3467
(dp3468
g29
S''
sg30
S'Revised sequence of the tetracycline-resistance gene of pBR322'
p3469
sg32
S''
sg33
S'Gene 22 (2-3), 277-280 (1983)'
p3470
sg35
(lp3471
g3
(g53
g5
NtRp3472
(dp3473
g56
g3
(g57
g5
NtRp3474
(dp3475
g60
I649
sg61
I0
sbsg62
g3
(g57
g5
NtRp3476
(dp3477
g60
I372
sg61
I0
sbsbasg37
S'6307828'
p3478
sg39
S'Peden,K.W.'
p3479
sg41
S''
sbag3
(g26
g5
NtRp3480
(dp3481
g29
S''
sg30
S'A new class of site-specific endodeoxyribonucleases. Endo.Sce I isolated from a eukaryote, Saccharomyces cerevisiae'
p3482
sg32
S''
sg33
S'J. Biol. Chem. 258 (8), 4663-4665 (1983)'
p3483
sg35
(lp3484
g3
(g53
g5
NtRp3485
(dp3486
g56
g3
(g57
g5
NtRp3487
(dp3488
g60
I181
sg61
I0
sbsg62
g3
(g57
g5
NtRp3489
(dp3490
g60
I131
sg61
I0
sbsbasg37
S'6300094'
p3491
sg39
S'Watabe,H., Iino,T., Kaneko,T., Shibata,T. and Ando,T.'
p3492
sg41
S''
sbag3
(g26
g5
NtRp3493
(dp3494
g29
S''
sg30
S'Directed mutagenesis method for analysis of mutagen specificity: application to ultraviolet-induced mutagenesis'
p3495
sg32
S''
sg33
S'Proc. Natl. Acad. Sci. U.S.A. 80 (1), 237-241 (1983)'
p3496
sg35
(lp3497
g3
(g53
g5
NtRp3498
(dp3499
g56
g3
(g57
g5
NtRp3500
(dp3501
g60
I581
sg61
I0
sbsg62
g3
(g57
g5
NtRp3502
(dp3503
g60
I367
sg61
I0
sbsbasg37
S'6337373'
p3504
sg39
S'Livneh,Z.'
p3505
sg41
S''
sbag3
(g26
g5
NtRp3506
(dp3507
g29
S''
sg30
S'Alteration and activation of sequence-specific cleavage of DNA by bleomycin in the presence of the antitumor drug cis-diamminedichloroplatinum(II)'
p3508
sg32
S''
sg33
S'Proc. Natl. Acad. Sci. U.S.A. 80 (22), 6795-6798 (1983)'
p3509
sg35
(lp3510
g3
(g53
g5
NtRp3511
(dp3512
g56
g3
(g57
g5
NtRp3513
(dp3514
g60
I2682
sg61
I0
sbsg62
g3
(g57
g5
NtRp3515
(dp3516
g60
I2626
sg61
I0
sbsbag3
(g53
g5
NtRp3517
(dp3518
g56
g3
(g57
g5
NtRp3519
(dp3520
g60
I2828
sg61
I0
sbsg62
g3
(g57
g5
NtRp3521
(dp3522
g60
I2780
sg61
I0
sbsbasg37
S'6196777'
p3523
sg39
S'Mascharak,P.K., Sugiura,Y., Kuwahara,J., Suzuki,T. and Lippard,S.J.'
p3524
sg41
S''
sbag3
(g26
g5
NtRp3525
(dp3526
g29
S''
sg30
S'Sequence-specific double-strand cleavage of DNA by penta-N-methylpyrrolecarboxamide-EDTA X Fe(II)'
p3527
sg32
S''
sg33
S'Proc. Natl. Acad. Sci. U.S.A. 80 (22), 6834-6837 (1983)'
p3528
sg35
(lp3529
g3
(g53
g5
NtRp3530
(dp3531
g56
g3
(g57
g5
NtRp3532
(dp3533
g60
I4336
sg61
I0
sbsg62
g3
(g57
g5
NtRp3534
(dp3535
g60
I4275
sg61
I0
sbsbasg37
S'6417654'
p3536
sg39
S'Schultz,P.G. and Dervan,P.B.'
p3537
sg41
S''
sbag3
(g26
g5
NtRp3538
(dp3539
g29
S''
sg30
S''
sg32
S''
sg33
S'Unpublished'
p3540
sg35
(lp3541
g3
(g53
g5
NtRp3542
(dp3543
g56
g3
(g57
g5
NtRp3544
(dp3545
g60
I528
sg61
I0
sbsg62
g3
(g57
g5
NtRp3546
(dp3547
g60
I517
sg61
I0
sbsbasg37
S''
sg39
S'Sutcliffe,J.G.'
p3548
sg41
S''
sbag3
(g26
g5
NtRp3549
(dp3550
g29
S''
sg30
S'The dnaA protein complex with the E. coli chromosomal replication origin (oriC) and other DNA sites'
p3551
sg32
S''
sg33
S'Cell 38 (3), 889-900 (1984)'
p3552
sg35
(lp3553
g3
(g53
g5
NtRp3554
(dp3555
g56
g3
(g57
g5
NtRp3556
(dp3557
g60
I2495
sg61
I0
sbsg62
g3
(g57
g5
NtRp3558
(dp3559
g60
I2394
sg61
I0
sbsbasg37
S'6091903'
p3560
sg39
S'Fuller,R.S., Funnell,B.E. and Kornberg,A.'
p3561
sg41
S''
sbag3
(g26
g5
NtRp3562
(dp3563
g29
S''
sg30
S'Linker tailing: unphosphorylated linker oligonucleotides for joining DNA termini'
p3564
sg32
S''
sg33
S'DNA 3 (2), 173-182 (1984)'
p3565
sg35
(lp3566
g3
(g53
g5
NtRp3567
(dp3568
g56
g3
(g57
g5
NtRp3569
(dp3570
g60
I2731
sg61
I0
sbsg62
g3
(g57
g5
NtRp3571
(dp3572
g60
I2728
sg61
I0
sbsbasg37
S'6327214'
p3573
sg39
S'Lathe,R., Kieny,M.P., Skory,S. and Lecocq,J.P.'
p3574
sg41
S''
sbag3
(g26
g5
NtRp3575
(dp3576
g29
S''
sg30
S'Restriction site bank vectors. II. DNA sequence analysis of plasmid pJRD158'
p3577
sg32
S''
sg33
S'DNA 3 (3), 259-268 (1984)'
p3578
sg35
(lp3579
g3
(g53
g5
NtRp3580
(dp3581
g56
g3
(g57
g5
NtRp3582
(dp3583
g60
I2730
sg61
I0
sbsg62
g3
(g57
g5
NtRp3584
(dp3585
g60
I2728
sg61
I0
sbsbasg37
S'6086259'
p3586
sg39
S'Heusterspreute,M. and Davison,J.'
p3587
sg41
S''
sbag3
(g26
g5
NtRp3588
(dp3589
g29
S''
sg30
S'Mutational analysis of primosome assembly sites. I. Distinct classes of mutants in the pBR322 Escherichia coli factor Y DNA effector sequences'
p3590
sg32
S''
sg33
S'J. Biol. Chem. 259 (22), 14286-14292 (1984)'
p3591
sg35
(lp3592
g3
(g53
g5
NtRp3593
(dp3594
g56
g3
(g57
g5
NtRp3595
(dp3596
g60
I2186
sg61
I0
sbsg62
g3
(g57
g5
NtRp3597
(dp3598
g60
I2112
sg61
I0
sbsbag3
(g53
g5
NtRp3599
(dp3600
g56
g3
(g57
g5
NtRp3601
(dp3602
g60
I2415
sg61
I0
sbsg62
g3
(g57
g5
NtRp3603
(dp3604
g60
I2347
sg61
I0
sbsbasg37
S'6209275'
p3605
sg39
S'Abarzua,P., Soeller,W. and Marians,K.J.'
p3606
sg41
S''
sbag3
(g26
g5
NtRp3607
(dp3608
g29
S''
sg30
S'Mutational analysis of primosome assembly sites. II. Role of secondary structure in the formation of active sites'
p3609
sg32
S''
sg33
S'J. Biol. Chem. 259 (22), 14293-14300 (1984)'
p3610
sg35
(lp3611
g3
(g53
g5
NtRp3612
(dp3613
g56
g3
(g57
g5
NtRp3614
(dp3615
g60
I2415
sg61
I0
sbsg62
g3
(g57
g5
NtRp3616
(dp3617
g60
I2347
sg61
I0
sbsbasg37
S'6150042'
p3618
sg39
S'Soeller,W., Abarzua,P. and Marians,K.J.'
p3619
sg41
S''
sbag3
(g26
g5
NtRp3620
(dp3621
g29
S''
sg30
S'Echinomycin binding sites on DNA'
p3622
sg32
S''
sg33
S'Science 225 (4667), 1122-1127 (1984)'
p3623
sg35
(lp3624
g3
(g53
g5
NtRp3625
(dp3626
g56
g3
(g57
g5
NtRp3627
(dp3628
g60
I4361
sg61
I0
sbsg62
g3
(g57
g5
NtRp3629
(dp3630
g60
I0
sg61
I0
sbsbasg37
S'6089341'
p3631
sg39
S'Van Dyke,M.M. and Dervan,P.B.'
p3632
sg41
S''
sbag3
(g26
g5
NtRp3633
(dp3634
g29
S'Vector I-A-iv-1'
p3635
sg30
S''
sg32
S''
sg33
S'(in) CLONING VECTORS. Elsevier Scientific Publishing, Amsterdam (1985)'
p3636
sg35
(lp3637
sg37
S''
sg39
S'Pouwels,P.H., Enger-Valk,B.E. and Brammar,W.J.'
p3638
sg41
S''
sbag3
(g26
g5
NtRp3639
(dp3640
g29
S''
sg30
S'A new revision of the sequence of plasmid pBR322'
p3641
sg32
S''
sg33
S'Gene 70 (2), 399-403 (1988)'
p3642
sg35
(lp3643
g3
(g53
g5
NtRp3644
(dp3645
g56
g3
(g57
g5
NtRp3646
(dp3647
g60
I4361
sg61
I0
sbsg62
g3
(g57
g5
NtRp3648
(dp3649
g60
I0
sg61
I0
sbsbasg37
S'3063608'
p3650
sg39
S'Watson,N.'
p3651
sg41
S''
sbag3
(g26
g5
NtRp3652
(dp3653
g29
S''
sg30
S'Obtained from VecBase 3.0'
p3654
sg32
S''
sg33
S'Unpublished'
p3655
sg35
(lp3656
sg37
S''
sg39
S'Gilbert,W.'
p3657
sg41
S''
sbasg66
(lp3658
S'J01749'
p3659
aS'K00005'
p3660
aS'L08654'
p3661
aS'M10282'
p3662
aS'M10283'
p3663
aS'M10286'
p3664
aS'M10356'
p3665
aS'M10784'
p3666
aS'M10785'
p3667
aS'M10786'
p3668
aS'M33694'
p3669
aS'V01119'
p3670
asg69
S'SYN'
p3671
sg71
S'30-SEP-2008'
p3672
sg73
S'Cloning vector pBR322'
p3673
sg75
S'208958'
p3674
ssg77
(lp3675
g3
(g79
g5
NtRp3676
(dp3677
g82
Nsg83
Nsg84
(lp3678
sg86
S''
sg87
g88
sg35
g3
(g53
g5
NtRp3679
(dp3680
g56
g3
(g57
g5
NtRp3681
(dp3682
g60
I4361
sg61
I0
sbsg62
g3
(g57
g5
NtRp3683
(dp3684
g60
I0
sg61
I0
sbsbsg95
S'source'
p3685
sg97
(dp3686
S'db_xref'
p3687
(lp3688
S'taxon:47470'
p3689
asS'mol_type'
p3690
(lp3691
S'other DNA'
p3692
asS'organism'
p3693
(lp3694
S'Cloning vector pBR322'
p3695
asS'focus'
p3696
(lp3697
S''
asS'tissue_lib'
p3698
(lp3699
S'ATCC 31344, ATCC 37017'
p3700
assg111
I1
sbag3
(g79
g5
NtRp3701
(dp3702
g82
Nsg83
Nsg84
(lp3703
sg86
S''
sg87
g88
sg35
g3
(g53
g5
NtRp3704
(dp3705
g56
g3
(g57
g5
NtRp3706
(dp3707
g60
I1762
sg61
I0
sbsg62
g3
(g57
g5
NtRp3708
(dp3709
g60
I0
sg61
I0
sbsbsg95
S'source'
p3710
sg97
(dp3711
S'db_xref'
p3712
(lp3713
S'taxon:2625'
p3714
asS'mol_type'
p3715
(lp3716
S'other DNA'
p3717
asS'organism'
p3718
(lp3719
S'Plasmid pSC101'
p3720
assg111
I1
sbag3
(g79
g5
NtRp3721
(dp3722
g82
Nsg83
Nsg84
(lp3723
sg86
S''
sg87
g88
sg35
g3
(g53
g5
NtRp3724
(dp3725
g56
g3
(g57
g5
NtRp3726
(dp3727
g60
I27
sg61
I0
sbsg62
g3
(g57
g5
NtRp3728
(dp3729
g60
I23
sg61
I0
sbsbsg95
S'misc_binding'
p3730
sg97
(dp3731
S'bound_moiety'
p3732
(lp3733
S'echinomycin'
p3734
assg111
I1
sbag3
(g79
g5
NtRp3735
(dp3736
g82
Nsg83
Nsg84
(lp3737
sg86
S''
sg87
g88
sg35
g3
(g53
g5
NtRp3738
(dp3739
g56
g3
(g57
g5
NtRp3740
(dp3741
g60
I33
sg61
I0
sbsg62
g3
(g57
g5
NtRp3742
(dp3743
g60
I26
sg61
I0
sbsbsg95
S'promoter'
p3744
sg97
(dp3745
S'note'
p3746
(lp3747
S'promoter P1 (6)'
p3748
assg111
I-1
sbag3
(g79
g5
NtRp3749
(dp3750
g82
Nsg83
Nsg84
(lp3751
sg86
S''
sg87
g88
sg35
g3
(g53
g5
NtRp3752
(dp3753
g56
g3
(g57
g5
NtRp3754
(dp3755
g60
I42
sg61
I0
sbsg62
g3
(g57
g5
NtRp3756
(dp3757
g60
I38
sg61
I0
sbsbsg95
S'misc_binding'
p3758
sg97
(dp3759
S'bound_moiety'
p3760
(lp3761
S'echinomycin'
p3762
assg111
I1
sbag3
(g79
g5
NtRp3763
(dp3764
g82
Nsg83
Nsg84
(lp3765
sg86
S''
sg87
g88
sg35
g3
(g53
g5
NtRp3766
(dp3767
g56
g3
(g57
g5
NtRp3768
(dp3769
g60
I49
sg61
I0
sbsg62
g3
(g57
g5
NtRp3770
(dp3771
g60
I42
sg61
I0
sbsbsg95
S'promoter'
p3772
sg97
(dp3773
S'note'
p3774
(lp3775
S'promoter P2 (6)'
p3776
assg111
I1
sbag3
(g79
g5
NtRp3777
(dp3778
g82
Nsg83
Nsg84
(lp3779
sg86
S''
sg87
g88
sg35
g3
(g53
g5
NtRp3780
(dp3781
g56
g3
(g57
g5
NtRp3782
(dp3783
g60
I56
sg61
I0
sbsg62
g3
(g57
g5
NtRp3784
(dp3785
g60
I52
sg61
I0
sbsbsg95
S'misc_binding'
p3786
sg97
(dp3787
S'bound_moiety'
p3788
(lp3789
S'echinomycin'
p3790
assg111
I1
sbag3
(g79
g5
NtRp3791
(dp3792
g82
Nsg83
Nsg84
(lp3793
sg86
S''
sg87
g88
sg35
g3
(g53
g5
NtRp3794
(dp3795
g56
g3
(g57
g5
NtRp3796
(dp3797
g60
I70
sg61
I0
sbsg62
g3
(g57
g5
NtRp3798
(dp3799
g60
I66
sg61
I0
sbsbsg95
S'misc_binding'
p3800
sg97
(dp3801
S'bound_moiety'
p3802
(lp3803
S'echinomycin'
p3804
assg111
I1
sbag3
(g79
g5
NtRp3805
(dp3806
g82
Nsg83
Nsg84
(lp3807
sg86
S''
sg87
g88
sg35
g3
(g53
g5
NtRp3808
(dp3809
g56
g3
(g57
g5
NtRp3810
(dp3811
g60
I83
sg61
I0
sbsg62
g3
(g57
g5
NtRp3812
(dp3813
g60
I79
sg61
I0
sbsbsg95
S'misc_binding'
p3814
sg97
(dp3815
S'bound_moiety'
p3816
(lp3817
S'echinomycin'
p3818
assg111
I1
sbag3
(g79
g5
NtRp3819
(dp3820
g82
Nsg83
Nsg84
(lp3821
sg86
S''
sg87
g88
sg35
g3
(g53
g5
NtRp3822
(dp3823
g56
g3
(g57
g5
NtRp3824
(dp3825
g60
I1276
sg61
I0
sbsg62
g3
(g57
g5
NtRp3826
(dp3827
g60
I85
sg61
I0
sbsbsg95
S'gene'
p3828
sg97
(dp3829
S'gene'
p3830
(lp3831
S'tet'
p3832
assg111
I1
sbag3
(g79
g5
NtRp3833
(dp3834
g82
Nsg83
Nsg84
(lp3835
sg86
S''
sg87
g88
sg35
g3
(g53
g5
NtRp3836
(dp3837
g56
g3
(g57
g5
NtRp3838
(dp3839
g60
I1276
sg61
I0
sbsg62
g3
(g57
g5
NtRp3840
(dp3841
g60
I85
sg61
I0
sbsbsg95
S'CDS'
p3842
sg97
(dp3843
S'product'
p3844
(lp3845
S'tetracycline resistance protein'
p3846
asS'codon_start'
p3847
(lp3848
S'1'
asS'transl_table'
p3849
(lp3850
S'11'
p3851
asS'db_xref'
p3852
(lp3853
S'GI:208959'
p3854
asS'translation'
p3855
(lp3856
S'MKSNNALIVILGTVTLDAVGIGLVMPVLPGLLRDIVHSDSIASHYGVLLALYALMQFLCAPVLGALSDRFGRRPVLLASLLGATIDYAIMATTPVLWILYAGRIVAGITGATGAVAGAYIADITDGEDRARHFGLMSACFGVGMVAGPVAGGLLGAISLHAPFLAAAVLNGLNLLLGCFLMQESHKGERRPMPLRAFNPVSSFRWARGMTIVAALMTVFFIMQLVGQVPAALWVIFGEDRFRWSATMIGLSLAVFGILHALAQAFVTGPATKRFGEKQAIIAGMAADALGYVLLAFATRGWMAFPIMILLASGGIGMPALQAMLSRQVDDDHQGQLQGSLAALTSLTSITGPLIVTAIYAASASTWNGLAWIVGAALYLVCLPALRRGAWSRATST'
p3857
asS'gene'
p3858
(lp3859
S'tet'
p3860
asS'protein_id'
p3861
(lp3862
S'AAB59735.1'
p3863
assg111
I1
sbag3
(g79
g5
NtRp3864
(dp3865
g82
Nsg83
Nsg84
(lp3866
sg86
S''
sg87
g88
sg35
g3
(g53
g5
NtRp3867
(dp3868
g56
g3
(g57
g5
NtRp3869
(dp3870
g60
I142
sg61
I0
sbsg62
g3
(g57
g5
NtRp3871
(dp3872
g60
I140
sg61
I0
sbsbsg95
S'misc_feature'
p3873
sg97
(dp3874
S'note'
p3875
(lp3876
S'Endo.Sce I cleavage site coordinated with site at base 146 (10)'
p3877
assg111
I-1
sbag3
(g79
g5
NtRp3878
(dp3879
g82
Nsg83
Nsg84
(lp3880
sg86
S''
sg87
g88
sg35
g3
(g53
g5
NtRp3881
(dp3882
g56
g3
(g57
g5
NtRp3883
(dp3884
g60
I147
sg61
I0
sbsg62
g3
(g57
g5
NtRp3885
(dp3886
g60
I145
sg61
I0
sbsbsg95
S'misc_feature'
p3887
sg97
(dp3888
S'note'
p3889
(lp3890
S'Endo.Sce I cleavage site coordinated with site at base 142 (10)'
p3891
asS'gene'
p3892
(lp3893
S'tet'
p3894
assg111
I1
sbag3
(g79
g5
NtRp3895
(dp3896
g82
Nsg83
Nsg84
(lp3897
sg86
S''
sg87
g88
sg35
g3
(g53
g5
NtRp3898
(dp3899
g56
g3
(g57
g5
NtRp3900
(dp3901
g60
I414
sg61
I0
sbsg62
g3
(g57
g5
NtRp3902
(dp3903
g60
I410
sg61
I0
sbsbsg95
S'misc_binding'
p3904
sg97
(dp3905
S'bound_moiety'
p3906
(lp3907
S'echinomycin'
p3908
asS'gene'
p3909
(lp3910
S'tet'
p3911
assg111
I1
sbag3
(g79
g5
NtRp3912
(dp3913
g82
Nsg83
Nsg84
(lp3914
sg86
S''
sg87
g88
sg35
g3
(g53
g5
NtRp3915
(dp3916
g56
g3
(g57
g5
NtRp3917
(dp3918
g60
I426
sg61
I0
sbsg62
g3
(g57
g5
NtRp3919
(dp3920
g60
I425
sg61
I0
sbsbsg95
S'conflict'
p3921
sg97
(dp3922
S'gene'
p3923
(lp3924
S'tet'
p3925
asS'citation'
p3926
(lp3927
S'[11]'
p3928
asS'replace'
p3929
(lp3930
S''
assg111
I1
sbag3
(g79
g5
NtRp3931
(dp3932
g82
Nsg83
Nsg84
(lp3933
sg86
S''
sg87
g88
sg35
g3
(g53
g5
NtRp3934
(dp3935
g56
g3
(g57
g5
NtRp3936
(dp3937
g60
I472
sg61
I0
sbsg62
g3
(g57
g5
NtRp3938
(dp3939
g60
I468
sg61
I0
sbsbsg95
S'misc_binding'
p3940
sg97
(dp3941
S'bound_moiety'
p3942
(lp3943
S'echinomycin'
p3944
asS'gene'
p3945
(lp3946
S'tet'
p3947
assg111
I1
sbag3
(g79
g5
NtRp3948
(dp3949
g82
Nsg83
Nsg84
(lp3950
sg86
S''
sg87
g88
sg35
g3
(g53
g5
NtRp3951
(dp3952
g56
g3
(g57
g5
NtRp3953
(dp3954
g60
I528
sg61
I0
sbsg62
g3
(g57
g5
NtRp3955
(dp3956
g60
I525
sg61
I0
sbsbsg95
S'old_sequence'
p3957
sg97
(dp3958
S'gene'
p3959
(lp3960
S'tet'
p3961
asS'citation'
p3962
(lp3963
S'[17]'
p3964
assg111
I1
sbag3
(g79
g5
NtRp3965
(dp3966
g82
Nsg83
Nsg84
(lp3967
sg86
S''
sg87
g88
sg35
g3
(g53
g5
NtRp3968
(dp3969
g56
g3
(g57
g5
NtRp3970
(dp3971
g60
I1519
sg61
I0
sbsg62
g3
(g57
g5
NtRp3972
(dp3973
g60
I1514
sg61
I0
sbsbsg95
S'repeat_region'
p3974
sg97
(dp3975
S'note'
p3976
(lp3977
S'gamma-delta insertion target sequence'
p3978
asS'rpt_type'
p3979
(lp3980
S'direct'
p3981
assg111
I-1
sbag3
(g79
g5
NtRp3982
(dp3983
g82
Nsg83
Nsg84
(lp3984
sg86
S''
sg87
g88
sg35
g3
(g53
g5
NtRp3985
(dp3986
g56
g3
(g57
g5
NtRp3987
(dp3988
g60
I1762
sg61
I0
sbsg62
g3
(g57
g5
NtRp3989
(dp3990
g60
I1635
sg61
I0
sbsbsg95
S'misc_feature'
p3991
sg97
(dp3992
S'note'
p3993
(lp3994
S'from pSC101 (bp 1860-1986)'
p3995
assg111
I1
sbag3
(g79
g5
NtRp3996
(dp3997
g82
Nsg83
Nsg84
(lp3998
sg86
S''
sg87
g88
sg35
g3
(g53
g5
NtRp3999
(dp4000
g56
g3
(g57
g5
NtRp4001
(dp4002
g60
I1792
sg61
I0
sbsg62
g3
(g57
g5
NtRp4003
(dp4004
g60
I1787
sg61
I0
sbsbsg95
S'repeat_region'
p4005
sg97
(dp4006
S'note'
p4007
(lp4008
S'gamma-delta insertion target sequence'
p4009
asS'rpt_type'
p4010
(lp4011
S'direct'
p4012
assg111
I-1
sbag3
(g79
g5
NtRp4013
(dp4014
g82
Nsg83
Nsg84
(lp4015
sg86
S''
sg87
g88
sg35
g3
(g53
g5
NtRp4016
(dp4017
g56
g3
(g57
g5
NtRp4018
(dp4019
g60
I1892
sg61
I0
sbsg62
g3
(g57
g5
NtRp4020
(dp4021
g60
I1890
sg61
I0
sbsbsg95
S'conflict'
p4022
sg97
(dp4023
S'citation'
p4024
(lp4025
S'[23]'
p4026
asS'replace'
p4027
(lp4028
S'att'
p4029
assg111
I1
sbag3
(g79
g5
NtRp4030
(dp4031
g82
Nsg83
Nsg84
(lp4032
sg86
S''
sg87
g88
sg35
g3
(g53
g5
NtRp4033
(dp4034
g56
g3
(g57
g5
NtRp4035
(dp4036
g60
I1893
sg61
I0
sbsg62
g3
(g57
g5
NtRp4037
(dp4038
g60
I1891
sg61
I0
sbsbsg95
S'old_sequence'
p4039
sg97
(dp4040
S'citation'
p4041
(lp4042
S'[2]'
p4043
aS'[22]'
p4044
assg111
I1
sbag3
(g79
g5
NtRp4045
(dp4046
g82
Nsg83
Nsg84
(lp4047
sg86
S''
sg87
g88
sg35
g3
(g53
g5
NtRp4048
(dp4049
g56
g3
(g57
g5
NtRp4050
(dp4051
g60
I1910
sg61
I0
sbsg62
g3
(g57
g5
NtRp4052
(dp4053
g60
I1904
sg61
I0
sbsbsg95
S'RBS'
p4054
sg97
(dp4055
sg111
I1
sbag3
(g79
g5
NtRp4056
(dp4057
g82
Nsg83
Nsg84
(lp4058
sg86
S''
sg87
g88
sg35
g3
(g53
g5
NtRp4059
(dp4060
g56
g3
(g57
g5
NtRp4061
(dp4062
g60
I1909
sg61
I0
sbsg62
g3
(g57
g5
NtRp4063
(dp4064
g60
I1904
sg61
I0
sbsbsg95
S'RBS'
p4065
sg97
(dp4066
S'note'
p4067
(lp4068
S'Shine-Dalgarno sequence'
p4069
assg111
I1
sbag3
(g79
g5
NtRp4070
(dp4071
g82
Nsg83
Nsg84
(lp4072
sg86
S''
sg87
g88
sg35
g3
(g53
g5
NtRp4073
(dp4074
g56
g3
(g57
g5
NtRp4075
(dp4076
g60
I1914
sg61
I0
sbsg62
g3
(g57
g5
NtRp4077
(dp4078
g60
I1912
sg61
I0
sbsbsg95
S'conflict'
p4079
sg97
(dp4080
S'citation'
p4081
(lp4082
S'[23]'
p4083
asS'replace'
p4084
(lp4085
S'caa'
p4086
assg111
I1
sbag3
(g79
g5
NtRp4087
(dp4088
g82
Nsg83
Nsg84
(lp4089
sg86
S''
sg87
g88
sg35
g3
(g53
g5
NtRp4090
(dp4091
g56
g3
(g57
g5
NtRp4092
(dp4093
g60
I1915
sg61
I0
sbsg62
g3
(g57
g5
NtRp4094
(dp4095
g60
I1913
sg61
I0
sbsbsg95
S'old_sequence'
p4096
sg97
(dp4097
S'citation'
p4098
(lp4099
S'[17]'
p4100
assg111
I1
sbag3
(g79
g5
NtRp4101
(dp4102
g82
Nsg83
Nsg84
(lp4103
sg86
S''
sg87
g88
sg35
g3
(g53
g5
NtRp4104
(dp4105
g56
g3
(g57
g5
NtRp4106
(dp4107
g60
I2106
sg61
I0
sbsg62
g3
(g57
g5
NtRp4108
(dp4109
g60
I1914
sg61
I0
sbsbsg95
S'CDS'
p4110
sg97
(dp4111
S'product'
p4112
(lp4113
S'ROP protein'
p4114
asS'codon_start'
p4115
(lp4116
S'1'
asS'transl_table'
p4117
(lp4118
S'11'
p4119
asS'db_xref'
p4120
(lp4121
S'GI:456436'
p4122
asS'translation'
p4123
(lp4124
S'MTKQEKTALNMARFIRSQTLTLLEKLNELDADEQADICESLHDHADELYRSCLARFGDDGENL'
p4125
asS'protein_id'
p4126
(lp4127
S'AAB59736.1'
p4128
assg111
I1
sbag3
(g79
g5
NtRp4129
(dp4130
g82
Nsg83
Nsg84
(lp4131
sg86
S''
sg87
g88
sg35
g3
(g53
g5
NtRp4132
(dp4133
g56
g3
(g57
g5
NtRp4134
(dp4135
g60
I2167
sg61
I0
sbsg62
g3
(g57
g5
NtRp4136
(dp4137
g60
I2010
sg61
I0
sbsbsg95
S'misc_feature'
p4138
sg97
(dp4139
S'note'
p4140
(lp4141
S'H-strand Y effector site'
p4142
asS'citation'
p4143
(lp4144
S'[5]'
p4145
assg111
I1
sbag3
(g79
g5
NtRp4146
(dp4147
g82
Nsg83
Nsg84
(lp4148
sg86
S''
sg87
g88
sg35
g3
(g53
g5
NtRp4149
(dp4150
g56
g3
(g57
g5
NtRp4151
(dp4152
g60
I2249
sg61
I0
sbsg62
g3
(g57
g5
NtRp4153
(dp4154
g60
I2244
sg61
I0
sbsbsg95
S'repeat_region'
p4155
sg97
(dp4156
S'note'
p4157
(lp4158
S'gamma-delta insertion target sequence'
p4159
asS'rpt_type'
p4160
(lp4161
S'direct'
p4162
assg111
I-1
sbag3
(g79
g5
NtRp4163
(dp4164
g82
Nsg83
Nsg84
(lp4165
sg86
S''
sg87
g88
sg35
g3
(g53
g5
NtRp4166
(dp4167
g56
g3
(g57
g5
NtRp4168
(dp4169
g60
I2414
sg61
I0
sbsg62
g3
(g57
g5
NtRp4170
(dp4171
g60
I2350
sg61
I0
sbsbsg95
S'misc_feature'
p4172
sg97
(dp4173
S'note'
p4174
(lp4175
S'L-strand Y effector site'
p4176
asS'citation'
p4177
(lp4178
S'[5]'
p4179
assg111
I-1
sbag3
(g79
g5
NtRp4180
(dp4181
g82
Nsg83
Nsg84
(lp4182
sg86
S''
sg87
g88
sg35
g3
(g53
g5
NtRp4183
(dp4184
g56
g3
(g57
g5
NtRp4185
(dp4186
g60
I2447
sg61
I0
sbsg62
g3
(g57
g5
NtRp4187
(dp4188
g60
I2438
sg61
I0
sbsbsg95
S'misc_binding'
p4189
sg97
(dp4190
S'bound_moiety'
p4191
(lp4192
S'dnaA'
p4193
assg111
I1
sbag3
(g79
g5
NtRp4194
(dp4195
g82
Nsg83
Nsg84
(lp4196
sg86
S''
sg87
g88
sg35
g3
(g53
g5
NtRp4197
(dp4198
g56
g3
(g57
g5
NtRp4199
(dp4200
g60
I2535
sg61
I0
sbsg62
g3
(g57
g5
NtRp4201
(dp4202
g60
I2534
sg61
I0
sbsbsg95
S'rep_origin'
p4203
sg97
(dp4204
sg111
I1
sbag3
(g79
g5
NtRp4205
(dp4206
g82
Nsg83
Nsg84
(lp4207
sg86
S''
sg87
g88
sg35
g3
(g53
g5
NtRp4208
(dp4209
g56
g3
(g57
g5
NtRp4210
(dp4211
g60
I2730
sg61
I0
sbsg62
g3
(g57
g5
NtRp4212
(dp4213
g60
I2728
sg61
I0
sbsbsg95
S'old_sequence'
p4214
sg97
(dp4215
S'note'
p4216
(lp4217
S'revision according to (17)'
p4218
asS'citation'
p4219
(lp4220
S'[2]'
p4221
aS'[17]'
p4222
asS'replace'
p4223
(lp4224
S'at'
p4225
assg111
I1
sbag3
(g79
g5
NtRp4226
(dp4227
g82
Nsg83
Nsg84
(lp4228
sg86
S''
sg87
g88
sg35
g3
(g53
g5
NtRp4229
(dp4230
g56
g3
(g57
g5
NtRp4231
(dp4232
g60
I2729
sg61
I0
sbsg62
g3
(g57
g5
NtRp4233
(dp4234
g60
I2728
sg61
I0
sbsbsg95
S'old_sequence'
p4235
sg97
(dp4236
S'citation'
p4237
(lp4238
S'[17]'
p4239
assg111
I1
sbag3
(g79
g5
NtRp4240
(dp4241
g82
Nsg83
Nsg84
(lp4242
sg86
S''
sg87
g88
sg35
g3
(g53
g5
NtRp4243
(dp4244
g56
g3
(g57
g5
NtRp4245
(dp4246
g60
I2730
sg61
I0
sbsg62
g3
(g57
g5
NtRp4247
(dp4248
g60
I2729
sg61
I0
sbsbsg95
S'old_sequence'
p4249
sg97
(dp4250
S'note'
p4251
(lp4252
S'revision according to (16)'
p4253
asS'citation'
p4254
(lp4255
S'[2]'
p4256
aS'[16]'
p4257
aS'[17]'
p4258
asS'replace'
p4259
(lp4260
S't'
assg111
I1
sbag3
(g79
g5
NtRp4261
(dp4262
g82
Nsg83
Nsg84
(lp4263
sg86
S''
sg87
g88
sg35
g3
(g53
g5
NtRp4264
(dp4265
g56
g3
(g57
g5
NtRp4266
(dp4267
g60
I4361
sg61
I0
sbsg62
g3
(g57
g5
NtRp4268
(dp4269
g60
I3147
sg61
I0
sbsbsg95
S'repeat_region'
p4270
sg97
(dp4271
S'mobile_element'
p4272
(lp4273
S'transposon:Tn3'
p4274
assg111
I1
sbag3
(g79
g5
NtRp4275
(dp4276
g82
Nsg83
Nsg84
(lp4277
sg86
S''
sg87
g88
sg35
g3
(g53
g5
NtRp4278
(dp4279
g56
g3
(g57
g5
NtRp4280
(dp4281
g60
I3185
sg61
I0
sbsg62
g3
(g57
g5
NtRp4282
(dp4283
g60
I3147
sg61
I0
sbsbsg95
S'repeat_region'
p4284
sg97
(dp4285
S'note'
p4286
(lp4287
S'corresponds to one of the 38bp repeats found in Tn3 (bp 1-38 and complement (4920-4957))'
p4288
asS'rpt_type'
p4289
(lp4290
S'inverted'
p4291
assg111
I1
sbag3
(g79
g5
NtRp4292
(dp4293
g82
Nsg83
Nsg84
(lp4294
sg86
S''
sg87
g88
sg35
g3
(g53
g5
NtRp4295
(dp4296
g56
g3
(g57
g5
NtRp4297
(dp4298
g60
I4153
sg61
I0
sbsg62
g3
(g57
g5
NtRp4299
(dp4300
g60
I3292
sg61
I0
sbsbsg95
S'gene'
p4301
sg97
(dp4302
S'gene'
p4303
(lp4304
S'bla'
p4305
assg111
I-1
sbag3
(g79
g5
NtRp4306
(dp4307
g82
Nsg83
Nsg84
(lp4308
sg86
S''
sg87
g88
sg35
g3
(g53
g5
NtRp4309
(dp4310
g56
g3
(g57
g5
NtRp4311
(dp4312
g60
I4153
sg61
I0
sbsg62
g3
(g57
g5
NtRp4313
(dp4314
g60
I3292
sg61
I0
sbsbsg95
S'CDS'
p4315
sg97
(dp4316
S'product'
p4317
(lp4318
S'beta-lactamase'
p4319
asS'codon_start'
p4320
(lp4321
S'1'
asS'transl_table'
p4322
(lp4323
S'11'
p4324
asS'note'
p4325
(lp4326
S'E-286'
p4327
asS'db_xref'
p4328
(lp4329
S'GI:455370'
p4330
asS'translation'
p4331
(lp4332
S'MSIQHFRVALIPFFAAFCLPVFAHPETLVKVKDAEDQLGARVGYIELDLNSGKILESFRPEERFPMMSTFKVLLCGAVLSRVDAGQEQLGRRIHYSQNDLVEYSPVTEKHLTDGMTVRELCSAAITMSDNTAANLLLTTIGGPKELTAFLHNMGDHVTRLDRWEPELNEAIPNDERDTTMPAAMATTLRKLLTGELLTLASRQQLIDWMEADKVAGPLLRSALPAGWFIADKSGAGERGSRGIIAALGPDGKPSRIVVIYTTGSQATMDERNRQIAEIGASLIKHW'
p4333
asS'gene'
p4334
(lp4335
S'bla'
p4336
asS'protein_id'
p4337
(lp4338
S'AAB59737.1'
p4339
assg111
I-1
sbag3
(g79
g5
NtRp4340
(dp4341
g82
Nsg83
Nsg84
(lp4342
sg86
S''
sg87
g88
sg35
g3
(g53
g5
NtRp4343
(dp4344
g56
g3
(g57
g5
NtRp4345
(dp4346
g60
I4153
sg61
I0
sbsg62
g3
(g57
g5
NtRp4347
(dp4348
g60
I4084
sg61
I0
sbsbsg95
S'sig_peptide'
p4349
sg97
(dp4350
S'gene'
p4351
(lp4352
S'bla'
p4353
assg111
I-1
sbag3
(g79
g5
NtRp4354
(dp4355
g82
Nsg83
Nsg84
(lp4356
sg86
S''
sg87
g88
sg35
g3
(g53
g5
NtRp4357
(dp4358
g56
g3
(g57
g5
NtRp4359
(dp4360
g60
I4084
sg61
I0
sbsg62
g3
(g57
g5
NtRp4361
(dp4362
g60
I3295
sg61
I0
sbsbsg95
S'mat_peptide'
p4363
sg97
(dp4364
S'product'
p4365
(lp4366
S'beta-lactamase'
p4367
asS'gene'
p4368
(lp4369
S'bla'
p4370
assg111
I-1
sbag3
(g79
g5
NtRp4371
(dp4372
g82
Nsg83
Nsg84
(lp4373
sg86
S''
sg87
g88
sg35
g3
(g53
g5
NtRp4374
(dp4375
g56
g3
(g57
g5
NtRp4376
(dp4377
g60
I4165
sg61
I0
sbsg62
g3
(g57
g5
NtRp4378
(dp4379
g60
I4160
sg61
I0
sbsbsg95
S'RBS'
p4380
sg97
(dp4381
S'note'
p4382
(lp4383
S'Shine-Dalgarno sequence'
p4384
assg111
I-1
sbag3
(g79
g5
NtRp4385
(dp4386
g82
Nsg83
Nsg84
(lp4387
sg86
S''
sg87
g88
sg35
g3
(g53
g5
NtRp4388
(dp4389
g56
g3
(g57
g5
NtRp4390
(dp4391
g60
I4194
sg61
I0
sbsg62
g3
(g57
g5
NtRp4392
(dp4393
g60
I4187
sg61
I0
sbsbsg95
S'promoter'
p4394
sg97
(dp4395
S'note'
p4396
(lp4397
S'promoter P3 (6)'
p4398
assg111
I-1
sbag3
(g79
g5
NtRp4399
(dp4400
g82
Nsg83
Nsg84
(lp4401
sg86
S''
sg87
g88
sg35
g3
(g53
g5
NtRp4402
(dp4403
g56
g3
(g57
g5
NtRp4404
(dp4405
g60
I4271
sg61
I0
sbsg62
g3
(g57
g5
NtRp4406
(dp4407
g60
I4267
sg61
I0
sbsbsg95
S'misc_binding'
p4408
sg97
(dp4409
S'bound_moiety'
p4410
(lp4411
S'echinomycin'
p4412
assg111
I-1
sbag3
(g79
g5
NtRp4413
(dp4414
g82
Nsg83
Nsg84
(lp4415
sg86
S''
sg87
g88
sg35
g3
(g53
g5
NtRp4416
(dp4417
g56
g3
(g57
g5
NtRp4418
(dp4419
g60
I4283
sg61
I0
sbsg62
g3
(g57
g5
NtRp4420
(dp4421
g60
I4279
sg61
I0
sbsbsg95
S'misc_binding'
p4422
sg97
(dp4423
S'bound_moiety'
p4424
(lp4425
S'echinomycin'
p4426
assg111
I-1
sbag3
(g79
g5
NtRp4427
(dp4428
g82
Nsg83
Nsg84
(lp4429
sg86
S''
sg87
g88
sg35
g3
(g53
g5
NtRp4430
(dp4431
g56
g3
(g57
g5
NtRp4432
(dp4433
g60
I4288
sg61
I0
sbsg62
g3
(g57
g5
NtRp4434
(dp4435
g60
I4284
sg61
I0
sbsbsg95
S'misc_binding'
p4436
sg97
(dp4437
S'bound_moiety'
p4438
(lp4439
S'echinomycin'
p4440
assg111
I-1
sbag3
(g79
g5
NtRp4441
(dp4442
g82
Nsg83
Nsg84
(lp4443
sg86
S''
sg87
g88
sg35
g3
(g53
g5
NtRp4444
(dp4445
g56
g3
(g57
g5
NtRp4446
(dp4447
g60
I4299
sg61
I0
sbsg62
g3
(g57
g5
NtRp4448
(dp4449
g60
I4295
sg61
I0
sbsbsg95
S'misc_binding'
p4450
sg97
(dp4451
S'bound_moiety'
p4452
(lp4453
S'echinomycin'
p4454
assg111
I-1
sbag3
(g79
g5
NtRp4455
(dp4456
g82
Nsg83
Nsg84
(lp4457
sg86
S''
sg87
g88
sg35
g3
(g53
g5
NtRp4458
(dp4459
g56
g3
(g57
g5
NtRp4460
(dp4461
g60
I4314
sg61
I0
sbsg62
g3
(g57
g5
NtRp4462
(dp4463
g60
I4310
sg61
I0
sbsbsg95
S'misc_binding'
p4464
sg97
(dp4465
S'bound_moiety'
p4466
(lp4467
S'echinomycin'
p4468
assg111
I-1
sbag3
(g79
g5
NtRp4469
(dp4470
g82
Nsg83
Nsg84
(lp4471
sg86
S''
sg87
g88
sg35
g3
(g53
g5
NtRp4472
(dp4473
g56
g3
(g57
g5
NtRp4474
(dp4475
g60
I4320
sg61
I0
sbsg62
g3
(g57
g5
NtRp4476
(dp4477
g60
I4316
sg61
I0
sbsbsg95
S'misc_binding'
p4478
sg97
(dp4479
S'bound_moiety'
p4480
(lp4481
S'echinomycin'
p4482
assg111
I-1
sbag3
(g79
g5
NtRp4483
(dp4484
g82
Nsg83
Nsg84
(lp4485
sg86
S''
sg87
g88
sg35
g3
(g53
g5
NtRp4486
(dp4487
g56
g3
(g57
g5
NtRp4488
(dp4489
g60
I4334
sg61
I0
sbsg62
g3
(g57
g5
NtRp4490
(dp4491
g60
I4330
sg61
I0
sbsbsg95
S'misc_binding'
p4492
sg97
(dp4493
S'bound_moiety'
p4494
(lp4495
S'echinomycin'
p4496
assg111
I-1
sbasg1279
g3
(g1280
g5
NtRp4497
(dp4498
g1283
g1284
sg1286
S'TTCTCATGTTTGACAGCTTATCATCGATAAGCTTTAATGCGGTAGTTTATCACAGTTAAATTGCTAACGCAGTCAGGCACCGTGTATGAAATCTAACAATGCGCTCATCGTCATCCTCGGCACCGTCACCCTGGATGCTGTAGGCATAGGCTTGGTTATGCCGGTACTGCCGGGCCTCTTGCGGGATATCGTCCATTCCGACAGCATCGCCAGTCACTATGGCGTGCTGCTAGCGCTATATGCGTTGATGCAATTTCTATGCGCACCCGTTCTCGGAGCACTGTCCGACCGCTTTGGCCGCCGCCCAGTCCTGCTCGCTTCGCTACTTGGAGCCACTATCGACTACGCGATCATGGCGACCACACCCGTCCTGTGGATCCTCTACGCCGGACGCATCGTGGCCGGCATCACCGGCGCCACAGGTGCGGTTGCTGGCGCCTATATCGCCGACATCACCGATGGGGAAGATCGGGCTCGCCACTTCGGGCTCATGAGCGCTTGTTTCGGCGTGGGTATGGTGGCAGGCCCCGTGGCCGGGGGACTGTTGGGCGCCATCTCCTTGCATGCACCATTCCTTGCGGCGGCGGTGCTCAACGGCCTCAACCTACTACTGGGCTGCTTCCTAATGCAGGAGTCGCATAAGGGAGAGCGTCGACCGATGCCCTTGAGAGCCTTCAACCCAGTCAGCTCCTTCCGGTGGGCGCGGGGCATGACTATCGTCGCCGCACTTATGACTGTCTTCTTTATCATGCAACTCGTAGGACAGGTGCCGGCAGCGCTCTGGGTCATTTTCGGCGAGGACCGCTTTCGCTGGAGCGCGACGATGATCGGCCTGTCGCTTGCGGTATTCGGAATCTTGCACGCCCTCGCTCAAGCCTTCGTCACTGGTCCCGCCACCAAACGTTTCGGCGAGAAGCAGGCCATTATCGCCGGCATGGCGGCCGACGCGCTGGGCTACGTCTTGCTGGCGTTCGCGACGCGAGGCTGGATGGCCTTCCCCATTATGATTCTTCTCGCTTCCGGCGGCATCGGGATGCCCGCGTTGCAGGCCATGCTGTCCAGGCAGGTAGATGACGACCATCAGGGACAGCTTCAAGGATCGCTCGCGGCTCTTACCAGCCTAACTTCGATCACTGGACCGCTGATCGTCACGGCGATTTATGCCGCCTCGGCGAGCACATGGAACGGGTTGGCATGGATTGTAGGCGCCGCCCTATACCTTGTCTGCCTCCCCGCGTTGCGTCGCGGTGCATGGAGCCGGGCCACCTCGACCTGAATGGAAGCCGGCGGCACCTCGCTAACGGATTCACCACTCCAAGAATTGGAGCCAATCAATTCTTGCGGAGAACTGTGAATGCGCAAACCAACCCTTGGCAGAACATATCCATCGCGTCCGCCATCTCCAGCAGCCGCACGCGGCGCATCTCGGGCAGCGTTGGGTCCTGGCCACGGGTGCGCATGATCGTGCTCCTGTCGTTGAGGACCCGGCTAGGCTGGCGGGGTTGCCTTACTGGTTAGCAGAATGAATCACCGATACGCGAGCGAACGTGAAGCGACTGCTGCTGCAAAACGTCTGCGACCTGAGCAACAACATGAATGGTCTTCGGTTTCCGTGTTTCGTAAAGTCTGGAAACGCGGAAGTCAGCGCCCTGCACCATTATGTTCCGGATCTGCATCGCAGGATGCTGCTGGCTACCCTGTGGAACACCTACATCTGTATTAACGAAGCGCTGGCATTGACCCTGAGTGATTTTTCTCTGGTCCCGCCGCATCCATACCGCCAGTTGTTTACCCTCACAACGTTCCAGTAACCGGGCATGTTCATCATCAGTAACCCGTATCGTGAGCATCCTCTCTCGTTTCATCGGTATCATTACCCCCATGAACAGAAATCCCCCTTACACGGAGGCATCAGTGACCAAACAGGAAAAAACCGCCCTTAACATGGCCCGCTTTATCAGAAGCCAGACATTAACGCTTCTGGAGAAACTCAACGAGCTGGACGCGGATGAACAGGCAGACATCTGTGAATCGCTTCACGACCACGCTGATGAGCTTTACCGCAGCTGCCTCGCGCGTTTCGGTGATGACGGTGAAAACCTCTGACACATGCAGCTCCCGGAGACGGTCACAGCTTGTCTGTAAGCGGATGCCGGGAGCAGACAAGCCCGTCAGGGCGCGTCAGCGGGTGTTGGCGGGTGTCGGGGCGCAGCCATGACCCAGTCACGTAGCGATAGCGGAGTGTATACTGGCTTAACTATGCGGCATCAGAGCAGATTGTACTGAGAGTGCACCATATGCGGTGTGAAATACCGCACAGATGCGTAAGGAGAAAATACCGCATCAGGCGCTCTTCCGCTTCCTCGCTCACTGACTCGCTGCGCTCGGTCGTTCGGCTGCGGCGAGCGGTATCAGCTCACTCAAAGGCGGTAATACGGTTATCCACAGAATCAGGGGATAACGCAGGAAAGAACATGTGAGCAAAAGGCCAGCAAAAGGCCAGGAACCGTAAAAAGGCCGCGTTGCTGGCGTTTTTCCATAGGCTCCGCCCCCCTGACGAGCATCACAAAAATCGACGCTCAAGTCAGAGGTGGCGAAACCCGACAGGACTATAAAGATACCAGGCGTTTCCCCCTGGAAGCTCCCTCGTGCGCTCTCCTGTTCCGACCCTGCCGCTTACCGGATACCTGTCCGCCTTTCTCCCTTCGGGAAGCGTGGCGCTTTCTCATAGCTCACGCTGTAGGTATCTCAGTTCGGTGTAGGTCGTTCGCTCCAAGCTGGGCTGTGTGCACGAACCCCCCGTTCAGCCCGACCGCTGCGCCTTATCCGGTAACTATCGTCTTGAGTCCAACCCGGTAAGACACGACTTATCGCCACTGGCAGCAGCCACTGGTAACAGGATTAGCAGAGCGAGGTATGTAGGCGGTGCTACAGAGTTCTTGAAGTGGTGGCCTAACTACGGCTACACTAGAAGGACAGTATTTGGTATCTGCGCTCTGCTGAAGCCAGTTACCTTCGGAAAAAGAGTTGGTAGCTCTTGATCCGGCAAACAAACCACCGCTGGTAGCGGTGGTTTTTTTGTTTGCAAGCAGCAGATTACGCGCAGAAAAAAAGGATCTCAAGAAGATCCTTTGATCTTTTCTACGGGGTCTGACGCTCAGTGGAACGAAAACTCACGTTAAGGGATTTTGGTCATGAGATTATCAAAAAGGATCTTCACCTAGATCCTTTTAAATTAAAAATGAAGTTTTAAATCAATCTAAAGTATATATGAGTAAACTTGGTCTGACAGTTACCAATGCTTAATCAGTGAGGCACCTATCTCAGCGATCTGTCTATTTCGTTCATCCATAGTTGCCTGACTCCCCGTCGTGTAGATAACTACGATACGGGAGGGCTTACCATCTGGCCCCAGTGCTGCAATGATACCGCGAGACCCACGCTCACCGGCTCCAGATTTATCAGCAATAAACCAGCCAGCCGGAAGGGCCGAGCGCAGAAGTGGTCCTGCAACTTTATCCGCCTCCATCCAGTCTATTAATTGTTGCCGGGAAGCTAGAGTAAGTAGTTCGCCAGTTAATAGTTTGCGCAACGTTGTTGCCATTGCTGCAGGCATCGTGGTGTCACGCTCGTCGTTTGGTATGGCTTCATTCAGCTCCGGTTCCCAACGATCAAGGCGAGTTACATGATCCCCCATGTTGTGCAAAAAAGCGGTTAGCTCCTTCGGTCCTCCGATCGTTGTCAGAAGTAAGTTGGCCGCAGTGTTATCACTCATGGTTATGGCAGCACTGCATAATTCTCTTACTGTCATGCCATCCGTAAGATGCTTTTCTGTGACTGGTGAGTACTCAACCAAGTCATTCTGAGAATAGTGTATGCGGCGACCGAGTTGCTCTTGCCCGGCGTCAACACGGGATAATACCGCGCCACATAGCAGAACTTTAAAAGTGCTCATCATTGGAAAACGTTCTTCGGGGCGAAAACTCTCAAGGATCTTACCGCTGTTGAGATCCAGTTCGATGTAACCCACTCGTGCACCCAACTGATCTTCAGCATCTTTTACTTTCACCAGCGTTTCTGGGTGAGCAAAAACAGGAAGGCAAAATGCCGCAAAAAAGGGAATAAGGGCGACACGGAAATGTTGAATACTCATACTCTTCCTTTTTCAATATTATTGAAGCATTTATCAGGGTTATTGTCTCATGAGCGGATACATATTTGAATGTATTTAGAAAAATAAACAAATAGGGGTTCCGCGCACATTTCCCCGAAAAGTGCCACCTGACGTCTAAGAAACCATTATTATCATGACATTAACCTATAAAAATAGGCGTATCACGAGGCCCTTTCGTCTTCAAGAA'
p4499
sbsg1288
g3
(g1289
g1290
(dtRp4500
(dp4501
g1293
I4361
sbsg87
S'J01749.1'
p4502
sg1295
S'SYNPBR322'
p4503
sbsS'pUC-TP'
p4504
g3
(g4
g5
NtRp4505
(dp4506
g8
(lp4507
sg10
S'Cloning vector pUC-TP with trimethoprim resistance cassette, complete sequence.'
p4508
sg12
(dp4509
g14
I1
sg15
S'Cloning vector pUC-TP'
p4510
sg17
(lp4511
S'other sequences'
p4512
aS'artificial sequences'
p4513
aS'vectors'
p4514
asg22
(lp4515
S''
asg24
(lp4516
g3
(g26
g5
NtRp4517
(dp4518
g29
S''
sg30
S'Small broad-host-range gentamycin resistance gene cassettes for site-specific insertion and deletion mutagenesis'
p4519
sg32
S''
sg33
S'BioTechniques 15 (5), 831-834 (1993)'
p4520
sg35
(lp4521
g3
(g53
g5
NtRp4522
(dp4523
g56
g3
(g57
g5
NtRp4524
(dp4525
g60
I3672
sg61
I0
sbsg62
g3
(g57
g5
NtRp4526
(dp4527
g60
I0
sg61
I0
sbsbasg37
S'8267974'
p4528
sg39
S'Schweizer,H.D.'
p4529
sg41
S''
sbag3
(g26
g5
NtRp4530
(dp4531
g29
S''
sg30
S'Role of ornibactin biosynthesis in the virulence of Burkholderia cepacia: characterization of pvdA, the gene encoding L-ornithine N(5)-oxygenase'
p4532
sg32
S''
sg33
S'Infect. Immun. 67 (9), 4443-4455 (1999)'
p4533
sg35
(lp4534
g3
(g53
g5
NtRp4535
(dp4536
g56
g3
(g57
g5
NtRp4537
(dp4538
g60
I3672
sg61
I0
sbsg62
g3
(g57
g5
NtRp4539
(dp4540
g60
I0
sg61
I0
sbsbasg37
S'10456885'
p4541
sg39
S'Sokol,P.A., Darling,P., Woods,D.E., Mahenthiralingam,E. and Kooi,C.'
p4542
sg41
S''
sbag3
(g26
g5
NtRp4543
(dp4544
g29
S''
sg30
S'Direct Submission'
p4545
sg32
S''
sg33
S'Submitted (22-MAR-1999) Pediatrics, University of British Columbia, 950 West 28th Avenue, Vancouver, BC V5Z 4H4, Canada'
p4546
sg35
(lp4547
g3
(g53
g5
NtRp4548
(dp4549
g56
g3
(g57
g5
NtRp4550
(dp4551
g60
I3672
sg61
I0
sbsg62
g3
(g57
g5
NtRp4552
(dp4553
g60
I0
sg61
I0
sbsbasg37
S''
sg39
S'Mahenthiralingam,E.'
p4554
sg41
S''
sbasg66
(lp4555
S'AF136443'
p4556
asg69
S'SYN'
p4557
sg71
S'31-AUG-1999'
p4558
sg73
S'Cloning vector pUC-TP'
p4559
sg75
S'4959727'
p4560
ssg77
(lp4561
g3
(g79
g5
NtRp4562
(dp4563
g82
Nsg83
Nsg84
(lp4564
sg86
S''
sg87
g88
sg35
g3
(g53
g5
NtRp4565
(dp4566
g56
g3
(g57
g5
NtRp4567
(dp4568
g60
I3672
sg61
I0
sbsg62
g3
(g57
g5
NtRp4569
(dp4570
g60
I0
sg61
I0
sbsbsg95
S'source'
p4571
sg97
(dp4572
S'note'
p4573
(lp4574
S'trimethoprim resistance cassette encoding plasmid'
p4575
asS'db_xref'
p4576
(lp4577
S'taxon:95118'
p4578
asS'mol_type'
p4579
(lp4580
S'genomic DNA'
p4581
asS'organism'
p4582
(lp4583
S'Cloning vector pUC-TP'
p4584
assg111
I1
sbag3
(g79
g5
NtRp4585
(dp4586
g82
Nsg83
Nsg84
(lp4587
sg86
S''
sg87
g88
sg35
g3
(g53
g5
NtRp4588
(dp4589
g56
g3
(g57
g5
NtRp4590
(dp4591
g60
I874
sg61
I0
sbsg62
g3
(g57
g5
NtRp4592
(dp4593
g60
I637
sg61
I0
sbsbsg95
S'gene'
p4594
sg97
(dp4595
S'gene'
p4596
(lp4597
S'dhfr'
p4598
assg111
I-1
sbag3
(g79
g5
NtRp4599
(dp4600
g82
Nsg83
Nsg84
(lp4601
sg86
S''
sg87
g88
sg35
g3
(g53
g5
NtRp4602
(dp4603
g56
g3
(g57
g5
NtRp4604
(dp4605
g60
I874
sg61
I0
sbsg62
g3
(g57
g5
NtRp4606
(dp4607
g60
I637
sg61
I0
sbsbsg95
S'CDS'
p4608
sg97
(dp4609
S'function'
p4610
(lp4611
S'resistance to trimethoprim'
p4612
asS'product'
p4613
(lp4614
S'Type II dihydrofolate reductase'
p4615
asS'codon_start'
p4616
(lp4617
S'1'
asS'transl_table'
p4618
(lp4619
S'11'
p4620
asS'db_xref'
p4621
(lp4622
S'GI:4959729'
p4623
asS'translation'
p4624
(lp4625
S'MGQSSDEANAPVAGQFALPLSATFGLGDRVRKKSGAAWQGQVVGWYCTKLTPEGYAVESESHPGSVQIYPVAALERVA'
p4626
asS'gene'
p4627
(lp4628
S'dhfr'
p4629
asS'protein_id'
p4630
(lp4631
S'AAD34469.1'
p4632
assg111
I-1
sbag3
(g79
g5
NtRp4633
(dp4634
g82
Nsg83
Nsg84
(lp4635
sg86
S''
sg87
g88
sg35
g3
(g53
g5
NtRp4636
(dp4637
g56
g3
(g57
g5
NtRp4638
(dp4639
g60
I3472
sg61
I0
sbsg62
g3
(g57
g5
NtRp4640
(dp4641
g60
I2611
sg61
I0
sbsbsg95
S'gene'
p4642
sg97
(dp4643
S'gene'
p4644
(lp4645
S'bla'
p4646
assg111
I-1
sbag3
(g79
g5
NtRp4647
(dp4648
g82
Nsg83
Nsg84
(lp4649
sg86
S''
sg87
g88
sg35
g3
(g53
g5
NtRp4650
(dp4651
g56
g3
(g57
g5
NtRp4652
(dp4653
g60
I3472
sg61
I0
sbsg62
g3
(g57
g5
NtRp4654
(dp4655
g60
I2611
sg61
I0
sbsbsg95
S'CDS'
p4656
sg97
(dp4657
S'function'
p4658
(lp4659
S'ampicillin resistance'
p4660
asS'product'
p4661
(lp4662
S'beta-lactamase'
p4663
asS'codon_start'
p4664
(lp4665
S'1'
asS'transl_table'
p4666
(lp4667
S'11'
p4668
asS'db_xref'
p4669
(lp4670
S'GI:4959728'
p4671
asS'translation'
p4672
(lp4673
S'MSIQHFRVALIPFFAAFCLPVFAHPETLVKVKDAEDQLGARVGYIELDLNSGKILESFRPEERFPMMSTFKVLLCGAVLSRIDAGQEQLGRRIHYSQNDLVEYSPVTEKHLTDGMTVRELCSAAITMSDNTAANLLLTTIGGPKELTAFLHNMGDHVTRLDRWEPELNEAIPNDERDTTMPVAMATTLRKLLTGELLTLASRQQLIDWMEADKVAGPLLRSALPAGWFIADKSGAGERGSRGIIAALGPDGKPSRIVVIYTTGSQATMDERNRQIAEIGASLIKHW'
p4674
asS'gene'
p4675
(lp4676
S'bla'
p4677
asS'protein_id'
p4678
(lp4679
S'AAD34468.1'
p4680
assg111
I-1
sbasg1279
g3
(g1280
g5
NtRp4681
(dp4682
g1283
g1284
sg1286
S'TCGCGCGTTTCGGTGATGACGGTGAAAACCTCTGACACATGCAGCTCCCGGAGACGGTCACAGCTTGTCTGTAAGCGGATGCCGGGAGCAGACAAGCCCGTCAGGGCGCGTCAGCGGGTGTTGGCGGGTGTCGGGGCTGGCTTAACTATGCGGCATCAGAGCAGATTGTACTGAGAGTGCACCATATGCGGTGTGAAATACCGCACAGATGCGTAAGGAGAAAATACCGCATCAGGCGCCATTCGCCATTCAGGCTGCGCAACTGTTGGGAAGGGCGATCGGTGCGGGCCTCTTCGCTATTACGCCAGCTGGCGAAAGGGGGATGTGCTGCAAGGCGATTAAGTTGGGTAACGCCAGGGTTTTCCCAGTCACGACGTTGTAAAACGACGGCCAGTGCCAACCTTGCATGCCTGCAGGTCGACTCTAGAGGATCTGGAGCGCCCACAGTCCATTGAACAAAGTATGCGCAGATTGTCCTCTCTGAGTCCTGTACATAACCCCAAACGGTTCGAGAGGAATTCCCACAGCAGTCGCAGTGCCCGCGACTCTCGCCGCTTGGTTCGATTGTGAGCGTTTGACCCATGACGCCTAACGATAAAGCTCAGCGGGCGGCGAAGCCGTCCGCTGGAGCGAATTGTTAGGCCACACGTTCAAGTGCAGCCACAGGATAAATTTGCACTGAGCCTGGGTGGGATTCGGACTCGACCGCATAGCCTTCAGGAGTGAGTTTTGTGCAATACCAACCGACGACTTGACCCTGCCAAGCGGCACCAGATTTCTTGCGTACGCGATCCCCTAAGCCAAAGGTGGCACTCAGGGGAAGCGCAAACTGCCCTGCAACGGGAGCGTTGGCTTCATCGCTACTTTGACCCATGTCGAATCCTTCTTGTGAATCTATTATGGCGACAAGCAAATCGAACTCTGACTGCCTACCCCACAACAACTATCAGAAAGCACCAGCACAACGGCTGCCTAACTTTGTTTTAGGGCGACTGCCCTGCTGCGTAACATCGTTGCTGCTCCATAACATCAAACATCGACCCACGGCGTAACGCGCTTGCTGCTTGGATGCCCGAGGCATAGACTGTACAAAAAAACAGTCATAACAAGCCATGAAAACCGCCACTGCGCCGTTACCACCGCTGCGTTCGGTCAAGGTTCTGGACCAGTTGCGTGAGCGCATACGCTACTTGCATTACAGTTTACGAACCGAACAGGCTTATGTCAACTGGGTTCGTGCCTTCATCGGTTTCCACGGTGTGCGTCACCCGGCAACCTTGGGCAGCAGCGAAGTCGAGGCATTTCTGTCTGGCTGGCGAACGAGCGCAAGGTTTCGGTCTCCACGCATCGTCAGGCATTGGCGGCCTTGCTGTTCTTCTACGGCAAGGTGCTGTGCACGGATCGATCCTCTAGAGTCGACCTGCAGGCATGCAAGCTTGGCGTAATCATGGTCATAGCTGTTTCCTGTGTGAAATTGTTATCCGCTCACAATTCCACACAACATACGAGCCGGAAGCATAAAGTGTAAAGCCTGGGGTGCCTAATGAGTGAGCTAACTCACATTAATTGCGTTGCGCTCACTGCCCGCTTTCCAGTCGGGAAACCTGTCGTGCCAGCTGCATTAATGAATCGGCCAACGCGCGGGGAGAGGCGGTTTGCGTATTGGGCGCTCTTCCGCTTCCTCGCTCACTGACTCGCTGCGCTCGGTCGTTCGGCTGCGGCGAGCGGTATCAGCTCACTCAAAGGCGGTAATACGGTTATCCACAGAATCAGGGGATAACGCAGGAAAGAACATGTGAGCAAAAGGCCAGCAAAAGGCCAGGAACCGTAAAAAGGCCGCGTTGCTGGCGTTTTTCCATAGGCTCCGCCCCCCTGACGAGCATCACAAAAATCGACGCTCAAGTCAGAGGTGGCGAAACCCGACAGGACTATAAAGATACCAGGCGTTTCCCCCTGGAAGCTCCCTCGTGCGCTCTCCTGTTCCGACCCTGCCGCTTACCGGATACCTGTCCGCCTTTCTCCCTTCGGGAAGCGTGGCGCTTTCTCATAGCTCACGCTGTAGGTATCTCAGTTCGGTGTAGGTCGTTCGCTCCAAGCTGGGCTGTGTGCACGAACCCCCCGTTCAGCCCGACCGCTGCGCCTTATCCGGTAACTATCGTCTTGAGTCCAACCCGGTAAGACACGACTTATCGCCACTGGCAGCAGCCACTGGTAACAGGATTAGCAGAGCGAGGTATGTAGGCGGTGCTACAGAGTTCTTGAAGTGGTGGCCTAACTACGGCTACACTAGAAGGACAGTATTTGGTATCTGCGCTCTGCTGAAGCCAGTTACCTTCGGAAAAAGAGTTGGTAGCTCTTGATCCGGCAAACAAACCACCGCTGGTAGCGGTGGTTTTTTTGTTTGCAAGCAGCAGATTACGCGCAGAAAAAAAGGATCTCAAGAAGATCCTTTGATCTTTTCTACGGGGTCTGACGCTCAGTGGAACGAAAACTCACGTTAAGGGATTTTGGTCATGAGATTATCAAAAAGGATCTTCACCTAGATCCTTTTAAATTAAAAATGAAGTTTTAAATCAATCTAAAGTATATATGAGTAAACTTGGTCTGACAGTTACCAATGCTTAATCAGTGAGGCACCTATCTCAGCGATCTGTCTATTTCGTTCATCCATAGTTGCCTGACTCCCCGTCGTGTAGATAACTACGATACGGGAGGGCTTACCATCTGGCCCCAGTGCTGCAATGATACCGCGAGACCCACGCTCACCGGCTCCAGATTTATCAGCAATAAACCAGCCAGCCGGAAGGGCCGAGCGCAGAAGTGGTCCTGCAACTTTATCCGCCTCCATCCAGTCTATTAATTGTTGCCGGGAAGCTAGAGTAAGTAGTTCGCCAGTTAATAGTTTGCGCAACGTTGTTGCCATTGCTACAGGCATCGTGGTGTCACGCTCGTCGTTTGGTATGGCTTCATTCAGCTCCGGTTCCCAACGATCAAGGCGAGTTACATGATCCCCCATGTTGTGCAAAAAAGCGGTTAGCTCCTTCGGTCCTCCGATCGTTGTCAGAAGTAAGTTGGCCGCAGTGTTATCACTCATGGTTATGGCAGCACTGCATAATTCTCTTACTGTCATGCCATCCGTAAGATGCTTTTCTGTGACTGGTGAGTACTCAACCAAGTCATTCTGAGAATAGTGTATGCGGCGACCGAGTTGCTCTTGCCCGGCGTCAATACGGGATAATACCGCGCCACATAGCAGAACTTTAAAAGTGCTCATCATTGGAAAACGTTCTTCGGGGCGAAAACTCTCAAGGATCTTACCGCTGTTGAGATCCAGTTCGATGTAACCCACTCGTGCACCCAACTGATCTTCAGCATCTTTTACTTTCACCAGCGTTTCTGGGTGAGCAAAAACAGGAAGGCAAAATGCCGCAAAAAAGGGAATAAGGGCGACACGGAAATGTTGAATACTCATACTCTTCCTTTTTCAATATTATTGAAGCATTTATCAGGGTTATTGTCTCATGAGCGGATACATATTTGAATGTATTTAGAAAAATAAACAAATAGGGGTTCCGCGCACATTTCCCCGAAAAGTGCCACCTGACGTCTAAGAAACCATTATTATCATGACATTAACCTATAAAAATAGGCGTATCACGAGGCCCTTTCGTC'
p4683
sbsg1288
g3
(g1289
g1290
(dtRp4684
(dp4685
g1293
I3672
sbsg87
S'AF136443.1'
p4686
sg1295
S'AF136443'
p4687
sbsS'YDp-W'
p4688
g3
(g4
g5
NtRp4689
(dp4690
g8
(lp4691
sg10
S'Cloning vector YDp-W, complete sequence.'
p4692
sg12
(dp4693
g14
I1
sg15
S'Cloning vector YDp-W'
p4694
sg17
(lp4695
S'other sequences'
p4696
aS'artificial sequences'
p4697
aS'vectors'
p4698
asg22
(lp4699
S''
asg24
(lp4700
g3
(g26
g5
NtRp4701
(dp4702
g29
S''
sg30
S'Direct Submission'
p4703
sg32
S''
sg33
S'Submitted (30-SEP-2002) Cell Biology and Plant Physiology, Regensburg University, Universitaetsstr. 31, Regensburg D-93040, Germany'
p4704
sg35
(lp4705
g3
(g53
g5
NtRp4706
(dp4707
g56
g3
(g57
g5
NtRp4708
(dp4709
g60
I3536
sg61
I0
sbsg62
g3
(g57
g5
NtRp4710
(dp4711
g60
I0
sg61
I0
sbsbasg37
S''
sg39
S'Stolz,J.'
p4712
sg41
S''
sbasg66
(lp4713
S'AY157312'
p4714
asg69
S'SYN'
p4715
sg71
S'07-OCT-2002'
p4716
sg73
S'Cloning vector YDp-W'
p4717
sg75
S'23506937'
p4718
ssg77
(lp4719
g3
(g79
g5
NtRp4720
(dp4721
g82
Nsg83
Nsg84
(lp4722
sg86
S''
sg87
g88
sg35
g3
(g53
g5
NtRp4723
(dp4724
g56
g3
(g57
g5
NtRp4725
(dp4726
g60
I3536
sg61
I0
sbsg62
g3
(g57
g5
NtRp4727
(dp4728
g60
I0
sg61
I0
sbsbsg95
S'source'
p4729
sg97
(dp4730
S'db_xref'
p4731
(lp4732
S'taxon:209527'
p4733
asS'mol_type'
p4734
(lp4735
S'genomic DNA'
p4736
asS'organism'
p4737
(lp4738
S'Cloning vector YDp-W'
p4739
assg111
I1
sbag3
(g79
g5
NtRp4740
(dp4741
g82
Nsg83
Nsg84
(lp4742
sg86
S''
sg87
g88
sg35
g3
(g53
g5
NtRp4743
(dp4744
g56
g3
(g57
g5
NtRp4745
(dp4746
g60
I813
sg61
I0
sbsg62
g3
(g57
g5
NtRp4747
(dp4748
g60
I138
sg61
I0
sbsbsg95
S'gene'
p4749
sg97
(dp4750
S'gene'
p4751
(lp4752
S'TRP1'
p4753
assg111
I1
sbag3
(g79
g5
NtRp4754
(dp4755
g82
Nsg83
Nsg84
(lp4756
sg86
S''
sg87
g88
sg35
g3
(g53
g5
NtRp4757
(dp4758
g56
g3
(g57
g5
NtRp4759
(dp4760
g60
I813
sg61
I0
sbsg62
g3
(g57
g5
NtRp4761
(dp4762
g60
I138
sg61
I0
sbsbsg95
S'CDS'
p4763
sg97
(dp4764
S'product'
p4765
(lp4766
S'phosphoribosylanthranilate isomerase'
p4767
asS'codon_start'
p4768
(lp4769
S'1'
asS'EC_number'
p4770
(lp4771
S'5.3.1.24'
p4772
asS'transl_table'
p4773
(lp4774
S'11'
p4775
asS'note'
p4776
(lp4777
S"derived from Saccharomyces cerevisiae TRP1 gene; N-(5'-phosphoribosyl)anthranilate isomerase; Trp1p"
p4778
asS'db_xref'
p4779
(lp4780
S'GI:23506938'
p4781
asS'translation'
p4782
(lp4783
S'MSVINFTGSSGPLVKVCGLQSTEAAECALDSDADLLGIICVPNRKRTIDPVIARKISSLVKAYKNSSGTPKYLVGVFRNQPKEDVLALVNDYGIDIVQLHGDESWQEYQEFLGLPVIKRLVFPKDCNILLSAASQKPHSFIPLFDSEAGGTGELLDWNSISDWVGRQESPESLHFMLAGGLTPENVGDALRLNGVIGVDVSGGVETNGVKDSNKIANFVKNAKK'
p4784
asS'gene'
p4785
(lp4786
S'TRP1'
p4787
asS'protein_id'
p4788
(lp4789
S'AAN31953.1'
p4790
assg111
I1
sbasg1279
g3
(g1280
g5
NtRp4791
(dp4792
g1283
g1284
sg1286
S'GAATTCCCGGGGATCCGGTGATTGATTGAGCAAGCTAATTCGGTCGAAAAAAGAAAAGGAGAGGGCCAAGAGGGAGGGCATTGGTGACTATTGAGCACGTGAGTATACGTGATTAAGCACACAAAGGCAGCTTGGAGTATGTCTGTTATTAATTTCACAGGTAGTTCTGGTCCATTGGTGAAAGTTTGCGGCTTGCAGAGCACAGAGGCCGCAGAATGTGCTCTAGATTCCGATGCTGACTTGCTGGGTATTATATGTGTGCCCAATAGAAAGAGAACAATTGACCCGGTTATTGCAAGGAAAATTTCAAGTCTTGTAAAAGCATATAAAAATAGTTCAGGCACTCCGAAATACTTGGTTGGCGTGTTTCGTAATCAACCTAAGGAGGATGTTTTGGCTCTGGTCAATGATTACGGCATTGATATCGTCCAACTGCATGGAGATGAGTCGTGGCAAGAATACCAAGAGTTCCTCGGTTTGCCAGTTATTAAAAGACTCGTATTTCCAAAAGACTGCAACATACTACTCAGTGCAGCTTCACAGAAACCTCATTCGTTTATTCCCTTGTTTGATTCAGAAGCAGGTGGGACAGGTGAACTTTTGGATTGGAACTCGATTTCTGACTGGGTTGGAAGGCAAGAGAGCCCCGAAAGCTTACATTTTATGTTAGCTGGTGGACTGACGCCAGAAAATGTTGGTGATGCGCTTAGATTAAATGGCGTTATTGGTGTTGATGTAAGCGGAGGTGTGGAGACAAATGGTGTAAAAGACTCTAACAAAATAGCAAATTTCGTCAAAAATGCTAAGAAATAGGTTATTACTGAGTAGTATTTATTTAAGTATTGTTTGTGCACTTGCCCTTGCTCAATCAATCACCGGATCCGTCGACCTGCAGCCAAGCTAGCTTGGCGTAATCATGGTCATAGCTGTTTCCTGTGTGAAATTGTTATCCGCTCACAATTCCACACAACATACGAGCCGGAAGCATAAAGTGTAAAGCCTGGGGTGCCTAATGAGTGAGCTAACTCACATTAATTGCGTTGCGCTCACTGCCCGCTTTCCAGTCGGGAAACCTGTCGTGCCAGCTGCATTAATGAATCGGCCAACGCGCGGGGAGAGGCGGTTTGCGTATTGGGCGCTCTTCCGCTTCCTCGCTCACTGACTCGCTGCGCTCGGTCGTTCGGCTGCGGCGAGCGGTATCAGCTCACTCAAAGGCGGTAATACGGTTATCCACAGAATCAGGGGATAACGCAGGAAAGAACATGTGAGCAAAAGGCCAGCAAAAGGCCAGGAACCGTAAAAAGGCCGCGTTGCTGGCGTTTTTCCATAGGCTCCGCCCCCCTGACGAGCATCACAAAAATCGACGCTCAAGTCAGAGGTGGCGAAACCCGACAGGACTATAAAGATACCAGGCGTTTCCCCCTGGAAGCTCCCTCGTGCGCTCTCCTGTTCCGACCCTGCCGCTTACCGGATACCTGTCCGCCTTTCTCCCTTCGGGAAGCGTGGCGCTTTCTCATAGCTCACGCTGTAGGTATCTCAGTTCGGTGTAGGTCGTTCGCTCCAAGCTGGGCTGTGTGCACGAACCCCCCGTTCAGCCCGACCGCTGCGCCTTATCCGGTAACTATCGTCTTGAGTCCAACCCGGTAAGACACGACTTATCGCCACTGGCAGCAGCCACTGGTAACAGGATTAGCAGAGCGAGGTATGTAGGCGGTGCTACAGAGTTCTTGAAGTGGTGGCCTAACTACGGCTACACTAGAAGGACAGTATTTGGTATCTGCGCTCTGCTGAAGCCAGTTACCTTCGGAAAAAGAGTTGGTAGCTCTTGATCCGGCAAACAAACCACCGCTGGTAGCGGTGGTTTTTTTGTTTGCAAGCAGCAGATTACGCGCAGAAAAAAAGGATCTCAAGAAGATCCTTTGATCTTTTCTACGGGGTCTGACGCTCAGTGGAACGAAAACTCACGTTAAGGGATTTTGGTCATGAGATTATCAAAAAGGATCTTCACCTAGATCCTTTTAAATTAAAAATGAAGTTTTAAATCAATCTAAAGTATATATGAGTAAACTTGGTCTGACAGTTACCAATGCTTAATCAGTGAGGCACCTATCTCAGCGATCTGTCTATTTCGTTCATCCATAGTTGCCTGACTCCCCGTCGTGTAGATAACTACGATACGGGAGGGCTTACCATCTGGCCCCAGTGCTGCAATGATACCGCGAGACCCACGCTCACCGGCTCCAGATTTATCAGCAATAAACCAGCCAGCCGGAAGGGCCGAGCGCAGAAGTGGTCCTGCAACTTTATCCGCCTCCATCCAGTCTATTAATTGTTGCCGGGAAGCTAGAGTAAGTAGTTCGCCAGTTAATAGTTTGCGCAACGTTGTTGCCATTGCTACAGGCATCGTGGTGTCACGCTCGTCGTTTGGTATGGCTTCATTCAGCTCCGGTTCCCAACGATCAAGGCGAGTTACATGATCCCCCATGTTGTGCAAAAAAGCGGTTAGCTCCTTCGGTCCTCCGATCGTTGTCAGAAGTAAGTTGGCCGCAGTGTTATCACTCATGGTTATGGCAGCACTGCATAATTCTCTTACTGTCATGCCATCCGTAAGATGCTTTTCTGTGACTGGTGAGTACTCAACCAAGTCATTCTGAGAATAGTGTATGCGGCGACCGAGTTGCTCTTGCCCGGCGTCAATACGGGATAATACCGCGCCACATAGCAGAACTTTAAAAGTGCTCATCATTGGAAAACGTTCTTCGGGGCGAAAACTCTCAAGGATCTTACCGCTGTTGAGATCCAGTTCGATGTAACCCACTCGTGCACCCAACTGATCTTCAGCATCTTTTACTTTCACCAGCGTTTCTGGGTGAGCAAAAACAGGAAGGCAAAATGCCGCAAAAAAGGGAATAAGGGCGACACGGAAATGTTGAATACTCATACTCTTCCTTTTTCAATATTATTGAAGCATTTATCAGGGTTATTGTCTCATGAGCGGATACATATTTGAATGTATTTAGAAAAATAAACAAATAGGGGTTCCGCGCACATTTCCCCGAAAAGTGCCACCTGACGTCTAAGAAACCATTATTATCATGACATTAACCTATAAAAATAGGCGTATCACGAGGCCCTTTCGTCTCGCGCGTTTCGGTGATGACGGTGAAAACCTCTGACACATGCAGCTCCCGGAGACGGTCACAGCTTGTCTGTAAGCGGATGCCGGGAGCAGACAAGCCCGTCAGGGCGCGTCAGCGGGTGTTGGCGGGTGTCGGGGCTGGCTTAACTATGCGGCATCAGAGCAGATTGTACTGAGAGTGCACCATATGCGGTGTGAAATACCGCACAGATGCGTAAGGAGAAAATACCGCATCAGGCGCCATTCGCCATTCAGGCTGCGCAACTGTTGGGAAGGGCGATCGGTGCGGGCCTCTTCGCTATTACGCCAGCTGGCGAAAGGGGGATGTGCTGCAAGGCGATTAAGTTGGGTAACGCCAGGGTTTTCCCAGTCACGACGTTGTAAAACGACGGCCAGT'
p4793
sbsg1288
g3
(g1289
g1290
(dtRp4794
(dp4795
g1293
I3536
sbsg87
S'AY157312.1'
p4796
sg1295
S'AY157312'
p4797
sbs.